
SensorDemo_BLESensor-App.elf:     file format elf32-littlearm

Sections:
Idx Name          Size      VMA       LMA       File off  Algn
  0 .isr_vector   000000c0  08000000  08000000  00010000  2**0
                  CONTENTS, ALLOC, LOAD, READONLY, DATA
  1 .text         00002bd8  080000c0  080000c0  000100c0  2**2
                  CONTENTS, ALLOC, LOAD, READONLY, CODE
  2 .rodata       00000028  08002c98  08002c98  00012c98  2**0
                  CONTENTS, ALLOC, LOAD, READONLY, DATA
  3 .ARM          00000008  08002cc0  08002cc0  00012cc0  2**2
                  CONTENTS, ALLOC, LOAD, READONLY, DATA
  4 .init_array   00000004  08002cc8  08002cc8  00012cc8  2**2
                  CONTENTS, ALLOC, LOAD, DATA
  5 .fini_array   00000004  08002ccc  08002ccc  00012ccc  2**2
                  CONTENTS, ALLOC, LOAD, DATA
  6 .data         0000006c  20000000  08002cd0  00020000  2**2
                  CONTENTS, ALLOC, LOAD, DATA
  7 .bss          000004cc  2000006c  08002d3c  0002006c  2**2
                  ALLOC
  8 ._user_heap_stack 00000600  20000538  08002d3c  00020538  2**0
                  ALLOC
  9 .ARM.attributes 00000028  00000000  00000000  0002006c  2**0
                  CONTENTS, READONLY
 10 .debug_info   00018a1e  00000000  00000000  00020094  2**0
                  CONTENTS, READONLY, DEBUGGING
 11 .debug_abbrev 000032fe  00000000  00000000  00038ab2  2**0
                  CONTENTS, READONLY, DEBUGGING
 12 .debug_loc    00008bdc  00000000  00000000  0003bdb0  2**0
                  CONTENTS, READONLY, DEBUGGING
 13 .debug_aranges 00000c68  00000000  00000000  00044990  2**3
                  CONTENTS, READONLY, DEBUGGING
 14 .debug_ranges 00000ee0  00000000  00000000  000455f8  2**3
                  CONTENTS, READONLY, DEBUGGING
 15 .debug_line   00007c24  00000000  00000000  000464d8  2**0
                  CONTENTS, READONLY, DEBUGGING
 16 .debug_str    0000594f  00000000  00000000  0004e0fc  2**0
                  CONTENTS, READONLY, DEBUGGING
 17 .comment      0000007c  00000000  00000000  00053a4b  2**0
                  CONTENTS, READONLY
 18 .debug_frame  00002598  00000000  00000000  00053ac8  2**2
                  CONTENTS, READONLY, DEBUGGING

Disassembly of section .text:

080000c0 <__do_global_dtors_aux>:
 80000c0:	b510      	push	{r4, lr}
 80000c2:	4c06      	ldr	r4, [pc, #24]	; (80000dc <__do_global_dtors_aux+0x1c>)
 80000c4:	7823      	ldrb	r3, [r4, #0]
 80000c6:	2b00      	cmp	r3, #0
 80000c8:	d107      	bne.n	80000da <__do_global_dtors_aux+0x1a>
 80000ca:	4b05      	ldr	r3, [pc, #20]	; (80000e0 <__do_global_dtors_aux+0x20>)
 80000cc:	2b00      	cmp	r3, #0
 80000ce:	d002      	beq.n	80000d6 <__do_global_dtors_aux+0x16>
 80000d0:	4804      	ldr	r0, [pc, #16]	; (80000e4 <__do_global_dtors_aux+0x24>)
 80000d2:	e000      	b.n	80000d6 <__do_global_dtors_aux+0x16>
 80000d4:	bf00      	nop
 80000d6:	2301      	movs	r3, #1
 80000d8:	7023      	strb	r3, [r4, #0]
 80000da:	bd10      	pop	{r4, pc}
 80000dc:	2000006c 	.word	0x2000006c
 80000e0:	00000000 	.word	0x00000000
 80000e4:	08002c80 	.word	0x08002c80

080000e8 <frame_dummy>:
 80000e8:	4b04      	ldr	r3, [pc, #16]	; (80000fc <frame_dummy+0x14>)
 80000ea:	b510      	push	{r4, lr}
 80000ec:	2b00      	cmp	r3, #0
 80000ee:	d003      	beq.n	80000f8 <frame_dummy+0x10>
 80000f0:	4903      	ldr	r1, [pc, #12]	; (8000100 <frame_dummy+0x18>)
 80000f2:	4804      	ldr	r0, [pc, #16]	; (8000104 <frame_dummy+0x1c>)
 80000f4:	e000      	b.n	80000f8 <frame_dummy+0x10>
 80000f6:	bf00      	nop
 80000f8:	bd10      	pop	{r4, pc}
 80000fa:	46c0      	nop			; (mov r8, r8)
 80000fc:	00000000 	.word	0x00000000
 8000100:	20000070 	.word	0x20000070
 8000104:	08002c80 	.word	0x08002c80

08000108 <__udivsi3>:
 8000108:	2200      	movs	r2, #0
 800010a:	0843      	lsrs	r3, r0, #1
 800010c:	428b      	cmp	r3, r1
 800010e:	d374      	bcc.n	80001fa <__udivsi3+0xf2>
 8000110:	0903      	lsrs	r3, r0, #4
 8000112:	428b      	cmp	r3, r1
 8000114:	d35f      	bcc.n	80001d6 <__udivsi3+0xce>
 8000116:	0a03      	lsrs	r3, r0, #8
 8000118:	428b      	cmp	r3, r1
 800011a:	d344      	bcc.n	80001a6 <__udivsi3+0x9e>
 800011c:	0b03      	lsrs	r3, r0, #12
 800011e:	428b      	cmp	r3, r1
 8000120:	d328      	bcc.n	8000174 <__udivsi3+0x6c>
 8000122:	0c03      	lsrs	r3, r0, #16
 8000124:	428b      	cmp	r3, r1
 8000126:	d30d      	bcc.n	8000144 <__udivsi3+0x3c>
 8000128:	22ff      	movs	r2, #255	; 0xff
 800012a:	0209      	lsls	r1, r1, #8
 800012c:	ba12      	rev	r2, r2
 800012e:	0c03      	lsrs	r3, r0, #16
 8000130:	428b      	cmp	r3, r1
 8000132:	d302      	bcc.n	800013a <__udivsi3+0x32>
 8000134:	1212      	asrs	r2, r2, #8
 8000136:	0209      	lsls	r1, r1, #8
 8000138:	d065      	beq.n	8000206 <__udivsi3+0xfe>
 800013a:	0b03      	lsrs	r3, r0, #12
 800013c:	428b      	cmp	r3, r1
 800013e:	d319      	bcc.n	8000174 <__udivsi3+0x6c>
 8000140:	e000      	b.n	8000144 <__udivsi3+0x3c>
 8000142:	0a09      	lsrs	r1, r1, #8
 8000144:	0bc3      	lsrs	r3, r0, #15
 8000146:	428b      	cmp	r3, r1
 8000148:	d301      	bcc.n	800014e <__udivsi3+0x46>
 800014a:	03cb      	lsls	r3, r1, #15
 800014c:	1ac0      	subs	r0, r0, r3
 800014e:	4152      	adcs	r2, r2
 8000150:	0b83      	lsrs	r3, r0, #14
 8000152:	428b      	cmp	r3, r1
 8000154:	d301      	bcc.n	800015a <__udivsi3+0x52>
 8000156:	038b      	lsls	r3, r1, #14
 8000158:	1ac0      	subs	r0, r0, r3
 800015a:	4152      	adcs	r2, r2
 800015c:	0b43      	lsrs	r3, r0, #13
 800015e:	428b      	cmp	r3, r1
 8000160:	d301      	bcc.n	8000166 <__udivsi3+0x5e>
 8000162:	034b      	lsls	r3, r1, #13
 8000164:	1ac0      	subs	r0, r0, r3
 8000166:	4152      	adcs	r2, r2
 8000168:	0b03      	lsrs	r3, r0, #12
 800016a:	428b      	cmp	r3, r1
 800016c:	d301      	bcc.n	8000172 <__udivsi3+0x6a>
 800016e:	030b      	lsls	r3, r1, #12
 8000170:	1ac0      	subs	r0, r0, r3
 8000172:	4152      	adcs	r2, r2
 8000174:	0ac3      	lsrs	r3, r0, #11
 8000176:	428b      	cmp	r3, r1
 8000178:	d301      	bcc.n	800017e <__udivsi3+0x76>
 800017a:	02cb      	lsls	r3, r1, #11
 800017c:	1ac0      	subs	r0, r0, r3
 800017e:	4152      	adcs	r2, r2
 8000180:	0a83      	lsrs	r3, r0, #10
 8000182:	428b      	cmp	r3, r1
 8000184:	d301      	bcc.n	800018a <__udivsi3+0x82>
 8000186:	028b      	lsls	r3, r1, #10
 8000188:	1ac0      	subs	r0, r0, r3
 800018a:	4152      	adcs	r2, r2
 800018c:	0a43      	lsrs	r3, r0, #9
 800018e:	428b      	cmp	r3, r1
 8000190:	d301      	bcc.n	8000196 <__udivsi3+0x8e>
 8000192:	024b      	lsls	r3, r1, #9
 8000194:	1ac0      	subs	r0, r0, r3
 8000196:	4152      	adcs	r2, r2
 8000198:	0a03      	lsrs	r3, r0, #8
 800019a:	428b      	cmp	r3, r1
 800019c:	d301      	bcc.n	80001a2 <__udivsi3+0x9a>
 800019e:	020b      	lsls	r3, r1, #8
 80001a0:	1ac0      	subs	r0, r0, r3
 80001a2:	4152      	adcs	r2, r2
 80001a4:	d2cd      	bcs.n	8000142 <__udivsi3+0x3a>
 80001a6:	09c3      	lsrs	r3, r0, #7
 80001a8:	428b      	cmp	r3, r1
 80001aa:	d301      	bcc.n	80001b0 <__udivsi3+0xa8>
 80001ac:	01cb      	lsls	r3, r1, #7
 80001ae:	1ac0      	subs	r0, r0, r3
 80001b0:	4152      	adcs	r2, r2
 80001b2:	0983      	lsrs	r3, r0, #6
 80001b4:	428b      	cmp	r3, r1
 80001b6:	d301      	bcc.n	80001bc <__udivsi3+0xb4>
 80001b8:	018b      	lsls	r3, r1, #6
 80001ba:	1ac0      	subs	r0, r0, r3
 80001bc:	4152      	adcs	r2, r2
 80001be:	0943      	lsrs	r3, r0, #5
 80001c0:	428b      	cmp	r3, r1
 80001c2:	d301      	bcc.n	80001c8 <__udivsi3+0xc0>
 80001c4:	014b      	lsls	r3, r1, #5
 80001c6:	1ac0      	subs	r0, r0, r3
 80001c8:	4152      	adcs	r2, r2
 80001ca:	0903      	lsrs	r3, r0, #4
 80001cc:	428b      	cmp	r3, r1
 80001ce:	d301      	bcc.n	80001d4 <__udivsi3+0xcc>
 80001d0:	010b      	lsls	r3, r1, #4
 80001d2:	1ac0      	subs	r0, r0, r3
 80001d4:	4152      	adcs	r2, r2
 80001d6:	08c3      	lsrs	r3, r0, #3
 80001d8:	428b      	cmp	r3, r1
 80001da:	d301      	bcc.n	80001e0 <__udivsi3+0xd8>
 80001dc:	00cb      	lsls	r3, r1, #3
 80001de:	1ac0      	subs	r0, r0, r3
 80001e0:	4152      	adcs	r2, r2
 80001e2:	0883      	lsrs	r3, r0, #2
 80001e4:	428b      	cmp	r3, r1
 80001e6:	d301      	bcc.n	80001ec <__udivsi3+0xe4>
 80001e8:	008b      	lsls	r3, r1, #2
 80001ea:	1ac0      	subs	r0, r0, r3
 80001ec:	4152      	adcs	r2, r2
 80001ee:	0843      	lsrs	r3, r0, #1
 80001f0:	428b      	cmp	r3, r1
 80001f2:	d301      	bcc.n	80001f8 <__udivsi3+0xf0>
 80001f4:	004b      	lsls	r3, r1, #1
 80001f6:	1ac0      	subs	r0, r0, r3
 80001f8:	4152      	adcs	r2, r2
 80001fa:	1a41      	subs	r1, r0, r1
 80001fc:	d200      	bcs.n	8000200 <__udivsi3+0xf8>
 80001fe:	4601      	mov	r1, r0
 8000200:	4152      	adcs	r2, r2
 8000202:	4610      	mov	r0, r2
 8000204:	4770      	bx	lr
 8000206:	e7ff      	b.n	8000208 <__udivsi3+0x100>
 8000208:	b501      	push	{r0, lr}
 800020a:	2000      	movs	r0, #0
 800020c:	f000 f806 	bl	800021c <__aeabi_idiv0>
 8000210:	bd02      	pop	{r1, pc}
 8000212:	46c0      	nop			; (mov r8, r8)

08000214 <__aeabi_uidivmod>:
 8000214:	2900      	cmp	r1, #0
 8000216:	d0f7      	beq.n	8000208 <__udivsi3+0x100>
 8000218:	e776      	b.n	8000108 <__udivsi3>
 800021a:	4770      	bx	lr

0800021c <__aeabi_idiv0>:
 800021c:	4770      	bx	lr
 800021e:	46c0      	nop			; (mov r8, r8)

08000220 <__aeabi_uldivmod>:
 8000220:	2b00      	cmp	r3, #0
 8000222:	d111      	bne.n	8000248 <__aeabi_uldivmod+0x28>
 8000224:	2a00      	cmp	r2, #0
 8000226:	d10f      	bne.n	8000248 <__aeabi_uldivmod+0x28>
 8000228:	2900      	cmp	r1, #0
 800022a:	d100      	bne.n	800022e <__aeabi_uldivmod+0xe>
 800022c:	2800      	cmp	r0, #0
 800022e:	d002      	beq.n	8000236 <__aeabi_uldivmod+0x16>
 8000230:	2100      	movs	r1, #0
 8000232:	43c9      	mvns	r1, r1
 8000234:	1c08      	adds	r0, r1, #0
 8000236:	b407      	push	{r0, r1, r2}
 8000238:	4802      	ldr	r0, [pc, #8]	; (8000244 <__aeabi_uldivmod+0x24>)
 800023a:	a102      	add	r1, pc, #8	; (adr r1, 8000244 <__aeabi_uldivmod+0x24>)
 800023c:	1840      	adds	r0, r0, r1
 800023e:	9002      	str	r0, [sp, #8]
 8000240:	bd03      	pop	{r0, r1, pc}
 8000242:	46c0      	nop			; (mov r8, r8)
 8000244:	ffffffd9 	.word	0xffffffd9
 8000248:	b403      	push	{r0, r1}
 800024a:	4668      	mov	r0, sp
 800024c:	b501      	push	{r0, lr}
 800024e:	9802      	ldr	r0, [sp, #8]
 8000250:	f000 f830 	bl	80002b4 <__udivmoddi4>
 8000254:	9b01      	ldr	r3, [sp, #4]
 8000256:	469e      	mov	lr, r3
 8000258:	b002      	add	sp, #8
 800025a:	bc0c      	pop	{r2, r3}
 800025c:	4770      	bx	lr
 800025e:	46c0      	nop			; (mov r8, r8)

08000260 <__aeabi_lmul>:
 8000260:	b5f0      	push	{r4, r5, r6, r7, lr}
 8000262:	46ce      	mov	lr, r9
 8000264:	4647      	mov	r7, r8
 8000266:	0415      	lsls	r5, r2, #16
 8000268:	0c2d      	lsrs	r5, r5, #16
 800026a:	002e      	movs	r6, r5
 800026c:	b580      	push	{r7, lr}
 800026e:	0407      	lsls	r7, r0, #16
 8000270:	0c14      	lsrs	r4, r2, #16
 8000272:	0c3f      	lsrs	r7, r7, #16
 8000274:	4699      	mov	r9, r3
 8000276:	0c03      	lsrs	r3, r0, #16
 8000278:	437e      	muls	r6, r7
 800027a:	435d      	muls	r5, r3
 800027c:	4367      	muls	r7, r4
 800027e:	4363      	muls	r3, r4
 8000280:	197f      	adds	r7, r7, r5
 8000282:	0c34      	lsrs	r4, r6, #16
 8000284:	19e4      	adds	r4, r4, r7
 8000286:	469c      	mov	ip, r3
 8000288:	42a5      	cmp	r5, r4
 800028a:	d903      	bls.n	8000294 <__aeabi_lmul+0x34>
 800028c:	2380      	movs	r3, #128	; 0x80
 800028e:	025b      	lsls	r3, r3, #9
 8000290:	4698      	mov	r8, r3
 8000292:	44c4      	add	ip, r8
 8000294:	464b      	mov	r3, r9
 8000296:	4351      	muls	r1, r2
 8000298:	4343      	muls	r3, r0
 800029a:	0436      	lsls	r6, r6, #16
 800029c:	0c36      	lsrs	r6, r6, #16
 800029e:	0c25      	lsrs	r5, r4, #16
 80002a0:	0424      	lsls	r4, r4, #16
 80002a2:	4465      	add	r5, ip
 80002a4:	19a4      	adds	r4, r4, r6
 80002a6:	1859      	adds	r1, r3, r1
 80002a8:	1949      	adds	r1, r1, r5
 80002aa:	0020      	movs	r0, r4
 80002ac:	bc0c      	pop	{r2, r3}
 80002ae:	4690      	mov	r8, r2
 80002b0:	4699      	mov	r9, r3
 80002b2:	bdf0      	pop	{r4, r5, r6, r7, pc}

080002b4 <__udivmoddi4>:
 80002b4:	b5f0      	push	{r4, r5, r6, r7, lr}
 80002b6:	4657      	mov	r7, sl
 80002b8:	464e      	mov	r6, r9
 80002ba:	4645      	mov	r5, r8
 80002bc:	46de      	mov	lr, fp
 80002be:	b5e0      	push	{r5, r6, r7, lr}
 80002c0:	0004      	movs	r4, r0
 80002c2:	b083      	sub	sp, #12
 80002c4:	000d      	movs	r5, r1
 80002c6:	4692      	mov	sl, r2
 80002c8:	4699      	mov	r9, r3
 80002ca:	428b      	cmp	r3, r1
 80002cc:	d82f      	bhi.n	800032e <__udivmoddi4+0x7a>
 80002ce:	d02c      	beq.n	800032a <__udivmoddi4+0x76>
 80002d0:	4649      	mov	r1, r9
 80002d2:	4650      	mov	r0, sl
 80002d4:	f000 f8ae 	bl	8000434 <__clzdi2>
 80002d8:	0029      	movs	r1, r5
 80002da:	0006      	movs	r6, r0
 80002dc:	0020      	movs	r0, r4
 80002de:	f000 f8a9 	bl	8000434 <__clzdi2>
 80002e2:	1a33      	subs	r3, r6, r0
 80002e4:	4698      	mov	r8, r3
 80002e6:	3b20      	subs	r3, #32
 80002e8:	469b      	mov	fp, r3
 80002ea:	d500      	bpl.n	80002ee <__udivmoddi4+0x3a>
 80002ec:	e074      	b.n	80003d8 <__udivmoddi4+0x124>
 80002ee:	4653      	mov	r3, sl
 80002f0:	465a      	mov	r2, fp
 80002f2:	4093      	lsls	r3, r2
 80002f4:	001f      	movs	r7, r3
 80002f6:	4653      	mov	r3, sl
 80002f8:	4642      	mov	r2, r8
 80002fa:	4093      	lsls	r3, r2
 80002fc:	001e      	movs	r6, r3
 80002fe:	42af      	cmp	r7, r5
 8000300:	d829      	bhi.n	8000356 <__udivmoddi4+0xa2>
 8000302:	d026      	beq.n	8000352 <__udivmoddi4+0x9e>
 8000304:	465b      	mov	r3, fp
 8000306:	1ba4      	subs	r4, r4, r6
 8000308:	41bd      	sbcs	r5, r7
 800030a:	2b00      	cmp	r3, #0
 800030c:	da00      	bge.n	8000310 <__udivmoddi4+0x5c>
 800030e:	e079      	b.n	8000404 <__udivmoddi4+0x150>
 8000310:	2200      	movs	r2, #0
 8000312:	2300      	movs	r3, #0
 8000314:	9200      	str	r2, [sp, #0]
 8000316:	9301      	str	r3, [sp, #4]
 8000318:	2301      	movs	r3, #1
 800031a:	465a      	mov	r2, fp
 800031c:	4093      	lsls	r3, r2
 800031e:	9301      	str	r3, [sp, #4]
 8000320:	2301      	movs	r3, #1
 8000322:	4642      	mov	r2, r8
 8000324:	4093      	lsls	r3, r2
 8000326:	9300      	str	r3, [sp, #0]
 8000328:	e019      	b.n	800035e <__udivmoddi4+0xaa>
 800032a:	4282      	cmp	r2, r0
 800032c:	d9d0      	bls.n	80002d0 <__udivmoddi4+0x1c>
 800032e:	2200      	movs	r2, #0
 8000330:	2300      	movs	r3, #0
 8000332:	9200      	str	r2, [sp, #0]
 8000334:	9301      	str	r3, [sp, #4]
 8000336:	9b0c      	ldr	r3, [sp, #48]	; 0x30
 8000338:	2b00      	cmp	r3, #0
 800033a:	d001      	beq.n	8000340 <__udivmoddi4+0x8c>
 800033c:	601c      	str	r4, [r3, #0]
 800033e:	605d      	str	r5, [r3, #4]
 8000340:	9800      	ldr	r0, [sp, #0]
 8000342:	9901      	ldr	r1, [sp, #4]
 8000344:	b003      	add	sp, #12
 8000346:	bc3c      	pop	{r2, r3, r4, r5}
 8000348:	4690      	mov	r8, r2
 800034a:	4699      	mov	r9, r3
 800034c:	46a2      	mov	sl, r4
 800034e:	46ab      	mov	fp, r5
 8000350:	bdf0      	pop	{r4, r5, r6, r7, pc}
 8000352:	42a3      	cmp	r3, r4
 8000354:	d9d6      	bls.n	8000304 <__udivmoddi4+0x50>
 8000356:	2200      	movs	r2, #0
 8000358:	2300      	movs	r3, #0
 800035a:	9200      	str	r2, [sp, #0]
 800035c:	9301      	str	r3, [sp, #4]
 800035e:	4643      	mov	r3, r8
 8000360:	2b00      	cmp	r3, #0
 8000362:	d0e8      	beq.n	8000336 <__udivmoddi4+0x82>
 8000364:	07fb      	lsls	r3, r7, #31
 8000366:	0872      	lsrs	r2, r6, #1
 8000368:	431a      	orrs	r2, r3
 800036a:	4646      	mov	r6, r8
 800036c:	087b      	lsrs	r3, r7, #1
 800036e:	e00e      	b.n	800038e <__udivmoddi4+0xda>
 8000370:	42ab      	cmp	r3, r5
 8000372:	d101      	bne.n	8000378 <__udivmoddi4+0xc4>
 8000374:	42a2      	cmp	r2, r4
 8000376:	d80c      	bhi.n	8000392 <__udivmoddi4+0xde>
 8000378:	1aa4      	subs	r4, r4, r2
 800037a:	419d      	sbcs	r5, r3
 800037c:	2001      	movs	r0, #1
 800037e:	1924      	adds	r4, r4, r4
 8000380:	416d      	adcs	r5, r5
 8000382:	2100      	movs	r1, #0
 8000384:	3e01      	subs	r6, #1
 8000386:	1824      	adds	r4, r4, r0
 8000388:	414d      	adcs	r5, r1
 800038a:	2e00      	cmp	r6, #0
 800038c:	d006      	beq.n	800039c <__udivmoddi4+0xe8>
 800038e:	42ab      	cmp	r3, r5
 8000390:	d9ee      	bls.n	8000370 <__udivmoddi4+0xbc>
 8000392:	3e01      	subs	r6, #1
 8000394:	1924      	adds	r4, r4, r4
 8000396:	416d      	adcs	r5, r5
 8000398:	2e00      	cmp	r6, #0
 800039a:	d1f8      	bne.n	800038e <__udivmoddi4+0xda>
 800039c:	465b      	mov	r3, fp
 800039e:	9800      	ldr	r0, [sp, #0]
 80003a0:	9901      	ldr	r1, [sp, #4]
 80003a2:	1900      	adds	r0, r0, r4
 80003a4:	4169      	adcs	r1, r5
 80003a6:	2b00      	cmp	r3, #0
 80003a8:	db22      	blt.n	80003f0 <__udivmoddi4+0x13c>
 80003aa:	002b      	movs	r3, r5
 80003ac:	465a      	mov	r2, fp
 80003ae:	40d3      	lsrs	r3, r2
 80003b0:	002a      	movs	r2, r5
 80003b2:	4644      	mov	r4, r8
 80003b4:	40e2      	lsrs	r2, r4
 80003b6:	001c      	movs	r4, r3
 80003b8:	465b      	mov	r3, fp
 80003ba:	0015      	movs	r5, r2
 80003bc:	2b00      	cmp	r3, #0
 80003be:	db2c      	blt.n	800041a <__udivmoddi4+0x166>
 80003c0:	0026      	movs	r6, r4
 80003c2:	409e      	lsls	r6, r3
 80003c4:	0033      	movs	r3, r6
 80003c6:	0026      	movs	r6, r4
 80003c8:	4647      	mov	r7, r8
 80003ca:	40be      	lsls	r6, r7
 80003cc:	0032      	movs	r2, r6
 80003ce:	1a80      	subs	r0, r0, r2
 80003d0:	4199      	sbcs	r1, r3
 80003d2:	9000      	str	r0, [sp, #0]
 80003d4:	9101      	str	r1, [sp, #4]
 80003d6:	e7ae      	b.n	8000336 <__udivmoddi4+0x82>
 80003d8:	4642      	mov	r2, r8
 80003da:	2320      	movs	r3, #32
 80003dc:	1a9b      	subs	r3, r3, r2
 80003de:	4652      	mov	r2, sl
 80003e0:	40da      	lsrs	r2, r3
 80003e2:	4641      	mov	r1, r8
 80003e4:	0013      	movs	r3, r2
 80003e6:	464a      	mov	r2, r9
 80003e8:	408a      	lsls	r2, r1
 80003ea:	0017      	movs	r7, r2
 80003ec:	431f      	orrs	r7, r3
 80003ee:	e782      	b.n	80002f6 <__udivmoddi4+0x42>
 80003f0:	4642      	mov	r2, r8
 80003f2:	2320      	movs	r3, #32
 80003f4:	1a9b      	subs	r3, r3, r2
 80003f6:	002a      	movs	r2, r5
 80003f8:	4646      	mov	r6, r8
 80003fa:	409a      	lsls	r2, r3
 80003fc:	0023      	movs	r3, r4
 80003fe:	40f3      	lsrs	r3, r6
 8000400:	4313      	orrs	r3, r2
 8000402:	e7d5      	b.n	80003b0 <__udivmoddi4+0xfc>
 8000404:	4642      	mov	r2, r8
 8000406:	2320      	movs	r3, #32
 8000408:	2100      	movs	r1, #0
 800040a:	1a9b      	subs	r3, r3, r2
 800040c:	2200      	movs	r2, #0
 800040e:	9100      	str	r1, [sp, #0]
 8000410:	9201      	str	r2, [sp, #4]
 8000412:	2201      	movs	r2, #1
 8000414:	40da      	lsrs	r2, r3
 8000416:	9201      	str	r2, [sp, #4]
 8000418:	e782      	b.n	8000320 <__udivmoddi4+0x6c>
 800041a:	4642      	mov	r2, r8
 800041c:	2320      	movs	r3, #32
 800041e:	0026      	movs	r6, r4
 8000420:	1a9b      	subs	r3, r3, r2
 8000422:	40de      	lsrs	r6, r3
 8000424:	002f      	movs	r7, r5
 8000426:	46b4      	mov	ip, r6
 8000428:	4097      	lsls	r7, r2
 800042a:	4666      	mov	r6, ip
 800042c:	003b      	movs	r3, r7
 800042e:	4333      	orrs	r3, r6
 8000430:	e7c9      	b.n	80003c6 <__udivmoddi4+0x112>
 8000432:	46c0      	nop			; (mov r8, r8)

08000434 <__clzdi2>:
 8000434:	b510      	push	{r4, lr}
 8000436:	2900      	cmp	r1, #0
 8000438:	d103      	bne.n	8000442 <__clzdi2+0xe>
 800043a:	f000 f807 	bl	800044c <__clzsi2>
 800043e:	3020      	adds	r0, #32
 8000440:	e002      	b.n	8000448 <__clzdi2+0x14>
 8000442:	1c08      	adds	r0, r1, #0
 8000444:	f000 f802 	bl	800044c <__clzsi2>
 8000448:	bd10      	pop	{r4, pc}
 800044a:	46c0      	nop			; (mov r8, r8)

0800044c <__clzsi2>:
 800044c:	211c      	movs	r1, #28
 800044e:	2301      	movs	r3, #1
 8000450:	041b      	lsls	r3, r3, #16
 8000452:	4298      	cmp	r0, r3
 8000454:	d301      	bcc.n	800045a <__clzsi2+0xe>
 8000456:	0c00      	lsrs	r0, r0, #16
 8000458:	3910      	subs	r1, #16
 800045a:	0a1b      	lsrs	r3, r3, #8
 800045c:	4298      	cmp	r0, r3
 800045e:	d301      	bcc.n	8000464 <__clzsi2+0x18>
 8000460:	0a00      	lsrs	r0, r0, #8
 8000462:	3908      	subs	r1, #8
 8000464:	091b      	lsrs	r3, r3, #4
 8000466:	4298      	cmp	r0, r3
 8000468:	d301      	bcc.n	800046e <__clzsi2+0x22>
 800046a:	0900      	lsrs	r0, r0, #4
 800046c:	3904      	subs	r1, #4
 800046e:	a202      	add	r2, pc, #8	; (adr r2, 8000478 <__clzsi2+0x2c>)
 8000470:	5c10      	ldrb	r0, [r2, r0]
 8000472:	1840      	adds	r0, r0, r1
 8000474:	4770      	bx	lr
 8000476:	46c0      	nop			; (mov r8, r8)
 8000478:	02020304 	.word	0x02020304
 800047c:	01010101 	.word	0x01010101
	...

08000488 <HAL_InitTick>:
__weak HAL_StatusTypeDef HAL_InitTick(uint32_t TickPriority)
{
  HAL_StatusTypeDef  status = HAL_OK;

  /*Configure the SysTick to have interrupt in 1ms time basis*/
  if (HAL_SYSTICK_Config(SystemCoreClock/1000UL) != 0U)
 8000488:	21fa      	movs	r1, #250	; 0xfa
 800048a:	4b0a      	ldr	r3, [pc, #40]	; (80004b4 <HAL_InitTick+0x2c>)
{
 800048c:	b570      	push	{r4, r5, r6, lr}
  if (HAL_SYSTICK_Config(SystemCoreClock/1000UL) != 0U)
 800048e:	0089      	lsls	r1, r1, #2
{
 8000490:	0005      	movs	r5, r0
  if (HAL_SYSTICK_Config(SystemCoreClock/1000UL) != 0U)
 8000492:	6818      	ldr	r0, [r3, #0]
 8000494:	f7ff fe38 	bl	8000108 <__udivsi3>
 8000498:	f000 f87a 	bl	8000590 <HAL_SYSTICK_Config>
 800049c:	0004      	movs	r4, r0
  {
    status = HAL_ERROR;
 800049e:	2001      	movs	r0, #1
  if (HAL_SYSTICK_Config(SystemCoreClock/1000UL) != 0U)
 80004a0:	2c00      	cmp	r4, #0
 80004a2:	d105      	bne.n	80004b0 <HAL_InitTick+0x28>
  }
  else
  {
    /*Configure the SysTick IRQ priority */
    HAL_NVIC_SetPriority(SysTick_IRQn, TickPriority, 0);
 80004a4:	3802      	subs	r0, #2
 80004a6:	0022      	movs	r2, r4
 80004a8:	0029      	movs	r1, r5
 80004aa:	f000 f837 	bl	800051c <HAL_NVIC_SetPriority>
 80004ae:	0020      	movs	r0, r4
  }

  /* Return function status */
  return status;
}
 80004b0:	bd70      	pop	{r4, r5, r6, pc}
 80004b2:	46c0      	nop			; (mov r8, r8)
 80004b4:	20000004 	.word	0x20000004

080004b8 <HAL_Init>:
  __HAL_FLASH_PREREAD_BUFFER_ENABLE();
 80004b8:	2340      	movs	r3, #64	; 0x40
 80004ba:	4a08      	ldr	r2, [pc, #32]	; (80004dc <HAL_Init+0x24>)
{
 80004bc:	b510      	push	{r4, lr}
  __HAL_FLASH_PREREAD_BUFFER_ENABLE();
 80004be:	6811      	ldr	r1, [r2, #0]
  if (HAL_InitTick(TICK_INT_PRIORITY) != HAL_OK)
 80004c0:	2000      	movs	r0, #0
  __HAL_FLASH_PREREAD_BUFFER_ENABLE();
 80004c2:	430b      	orrs	r3, r1
 80004c4:	6013      	str	r3, [r2, #0]
  if (HAL_InitTick(TICK_INT_PRIORITY) != HAL_OK)
 80004c6:	f7ff ffdf 	bl	8000488 <HAL_InitTick>
 80004ca:	1e04      	subs	r4, r0, #0
 80004cc:	d103      	bne.n	80004d6 <HAL_Init+0x1e>
    HAL_MspInit();
 80004ce:	f002 fa35 	bl	800293c <HAL_MspInit>
}
 80004d2:	0020      	movs	r0, r4
 80004d4:	bd10      	pop	{r4, pc}
    status = HAL_ERROR;
 80004d6:	2401      	movs	r4, #1
 80004d8:	e7fb      	b.n	80004d2 <HAL_Init+0x1a>
 80004da:	46c0      	nop			; (mov r8, r8)
 80004dc:	40022000 	.word	0x40022000

080004e0 <HAL_IncTick>:
  *      implementations in user file.
  * @retval None
  */
__weak void HAL_IncTick(void)
{
  uwTick++;
 80004e0:	4a02      	ldr	r2, [pc, #8]	; (80004ec <HAL_IncTick+0xc>)
 80004e2:	6813      	ldr	r3, [r2, #0]
 80004e4:	3301      	adds	r3, #1
 80004e6:	6013      	str	r3, [r2, #0]
}
 80004e8:	4770      	bx	lr
 80004ea:	46c0      	nop			; (mov r8, r8)
 80004ec:	20000474 	.word	0x20000474

080004f0 <HAL_GetTick>:
  *       implementations in user file.
  * @retval tick value
  */
__weak uint32_t HAL_GetTick(void)
{
  return uwTick;
 80004f0:	4b01      	ldr	r3, [pc, #4]	; (80004f8 <HAL_GetTick+0x8>)
 80004f2:	6818      	ldr	r0, [r3, #0]
}
 80004f4:	4770      	bx	lr
 80004f6:	46c0      	nop			; (mov r8, r8)
 80004f8:	20000474 	.word	0x20000474

080004fc <HAL_Delay>:
  *       implementations in user file.
  * @param Delay specifies the delay time length, in milliseconds.
  * @retval None
  */
__weak void HAL_Delay(uint32_t Delay)
{
 80004fc:	b570      	push	{r4, r5, r6, lr}
 80004fe:	0004      	movs	r4, r0
  uint32_t tickstart = HAL_GetTick();
 8000500:	f7ff fff6 	bl	80004f0 <HAL_GetTick>
  uint32_t wait = Delay;

  /* Add a period to guaranty minimum wait */
  if (wait < HAL_MAX_DELAY)
  {
    wait++;
 8000504:	1c63      	adds	r3, r4, #1
 8000506:	1e5a      	subs	r2, r3, #1
 8000508:	4193      	sbcs	r3, r2
  uint32_t tickstart = HAL_GetTick();
 800050a:	0005      	movs	r5, r0
    wait++;
 800050c:	18e4      	adds	r4, r4, r3
  }

  while((HAL_GetTick() - tickstart) < wait)
 800050e:	f7ff ffef 	bl	80004f0 <HAL_GetTick>
 8000512:	1b40      	subs	r0, r0, r5
 8000514:	4284      	cmp	r4, r0
 8000516:	d8fa      	bhi.n	800050e <HAL_Delay+0x12>
  {
  }
}
 8000518:	bd70      	pop	{r4, r5, r6, pc}
	...

0800051c <HAL_NVIC_SetPriority>:
  *         with stm32l0xx devices, this parameter is a dummy value and it is ignored, because 
  *         no subpriority supported in Cortex M0+ based products.   
  * @retval None
  */
void HAL_NVIC_SetPriority(IRQn_Type IRQn, uint32_t PreemptPriority, uint32_t SubPriority)
{ 
 800051c:	b570      	push	{r4, r5, r6, lr}
 800051e:	0189      	lsls	r1, r1, #6
  \param [in]      IRQn  Interrupt number.
  \param [in]  priority  Priority to set.
 */
__STATIC_INLINE void NVIC_SetPriority(IRQn_Type IRQn, uint32_t priority)
{
  if ((int32_t)(IRQn) < 0)
 8000520:	2800      	cmp	r0, #0
 8000522:	da14      	bge.n	800054e <HAL_NVIC_SetPriority+0x32>
  {
    SCB->SHP[_SHP_IDX(IRQn)] = ((uint32_t)(SCB->SHP[_SHP_IDX(IRQn)] & ~(0xFFUL << _BIT_SHIFT(IRQn))) |
 8000524:	230f      	movs	r3, #15
 8000526:	b2c0      	uxtb	r0, r0
 8000528:	4003      	ands	r3, r0
 800052a:	3b08      	subs	r3, #8
 800052c:	4a11      	ldr	r2, [pc, #68]	; (8000574 <HAL_NVIC_SetPriority+0x58>)
 800052e:	089b      	lsrs	r3, r3, #2
 8000530:	009b      	lsls	r3, r3, #2
 8000532:	189b      	adds	r3, r3, r2
 8000534:	2203      	movs	r2, #3
 8000536:	4010      	ands	r0, r2
 8000538:	4090      	lsls	r0, r2
 800053a:	32fc      	adds	r2, #252	; 0xfc
 800053c:	0015      	movs	r5, r2
       (((priority << (8U - __NVIC_PRIO_BITS)) & (uint32_t)0xFFUL) << _BIT_SHIFT(IRQn)));
 800053e:	4011      	ands	r1, r2
    SCB->SHP[_SHP_IDX(IRQn)] = ((uint32_t)(SCB->SHP[_SHP_IDX(IRQn)] & ~(0xFFUL << _BIT_SHIFT(IRQn))) |
 8000540:	4085      	lsls	r5, r0
       (((priority << (8U - __NVIC_PRIO_BITS)) & (uint32_t)0xFFUL) << _BIT_SHIFT(IRQn)));
 8000542:	4081      	lsls	r1, r0
    SCB->SHP[_SHP_IDX(IRQn)] = ((uint32_t)(SCB->SHP[_SHP_IDX(IRQn)] & ~(0xFFUL << _BIT_SHIFT(IRQn))) |
 8000544:	69dc      	ldr	r4, [r3, #28]
 8000546:	43ac      	bics	r4, r5
 8000548:	4321      	orrs	r1, r4
 800054a:	61d9      	str	r1, [r3, #28]
    /* Check the parameters */
  assert_param(IS_NVIC_PREEMPTION_PRIORITY(PreemptPriority));
  NVIC_SetPriority(IRQn,PreemptPriority);
}
 800054c:	bd70      	pop	{r4, r5, r6, pc}
  }
  else
  {
    NVIC->IP[_IP_IDX(IRQn)]  = ((uint32_t)(NVIC->IP[_IP_IDX(IRQn)]  & ~(0xFFUL << _BIT_SHIFT(IRQn))) |
 800054e:	2503      	movs	r5, #3
 8000550:	0883      	lsrs	r3, r0, #2
 8000552:	4028      	ands	r0, r5
 8000554:	40a8      	lsls	r0, r5
 8000556:	35fc      	adds	r5, #252	; 0xfc
 8000558:	002e      	movs	r6, r5
 800055a:	4a07      	ldr	r2, [pc, #28]	; (8000578 <HAL_NVIC_SetPriority+0x5c>)
 800055c:	009b      	lsls	r3, r3, #2
 800055e:	189b      	adds	r3, r3, r2
 8000560:	22c0      	movs	r2, #192	; 0xc0
 8000562:	4086      	lsls	r6, r0
       (((priority << (8U - __NVIC_PRIO_BITS)) & (uint32_t)0xFFUL) << _BIT_SHIFT(IRQn)));
 8000564:	4029      	ands	r1, r5
 8000566:	4081      	lsls	r1, r0
    NVIC->IP[_IP_IDX(IRQn)]  = ((uint32_t)(NVIC->IP[_IP_IDX(IRQn)]  & ~(0xFFUL << _BIT_SHIFT(IRQn))) |
 8000568:	0092      	lsls	r2, r2, #2
 800056a:	589c      	ldr	r4, [r3, r2]
 800056c:	43b4      	bics	r4, r6
 800056e:	4321      	orrs	r1, r4
 8000570:	5099      	str	r1, [r3, r2]
 8000572:	e7eb      	b.n	800054c <HAL_NVIC_SetPriority+0x30>
 8000574:	e000ed00 	.word	0xe000ed00
 8000578:	e000e100 	.word	0xe000e100

0800057c <HAL_NVIC_EnableIRQ>:
  NVIC->ISER[0U] = (uint32_t)(1UL << (((uint32_t)(int32_t)IRQn) & 0x1FUL));
 800057c:	231f      	movs	r3, #31
 800057e:	4018      	ands	r0, r3
 8000580:	3b1e      	subs	r3, #30
 8000582:	4083      	lsls	r3, r0
 8000584:	4a01      	ldr	r2, [pc, #4]	; (800058c <HAL_NVIC_EnableIRQ+0x10>)
 8000586:	6013      	str	r3, [r2, #0]
  /* Check the parameters */
  assert_param(IS_NVIC_DEVICE_IRQ(IRQn));
  
  /* Enable interrupt */
  NVIC_EnableIRQ(IRQn);
}
 8000588:	4770      	bx	lr
 800058a:	46c0      	nop			; (mov r8, r8)
 800058c:	e000e100 	.word	0xe000e100

08000590 <HAL_SYSTICK_Config>:
           function <b>SysTick_Config</b> is not included. In this case, the file <b><i>device</i>.h</b>
           must contain a vendor-specific implementation of this function.
 */
__STATIC_INLINE uint32_t SysTick_Config(uint32_t ticks)
{
  if ((ticks - 1UL) > SysTick_LOAD_RELOAD_Msk)
 8000590:	4a09      	ldr	r2, [pc, #36]	; (80005b8 <HAL_SYSTICK_Config+0x28>)
 8000592:	1e43      	subs	r3, r0, #1
  {
    return (1UL);                                                   /* Reload value impossible */
 8000594:	2001      	movs	r0, #1
  if ((ticks - 1UL) > SysTick_LOAD_RELOAD_Msk)
 8000596:	4293      	cmp	r3, r2
 8000598:	d80d      	bhi.n	80005b6 <HAL_SYSTICK_Config+0x26>
    SCB->SHP[_SHP_IDX(IRQn)] = ((uint32_t)(SCB->SHP[_SHP_IDX(IRQn)] & ~(0xFFUL << _BIT_SHIFT(IRQn))) |
 800059a:	21c0      	movs	r1, #192	; 0xc0
  }

  SysTick->LOAD  = (uint32_t)(ticks - 1UL);                         /* set reload register */
 800059c:	4a07      	ldr	r2, [pc, #28]	; (80005bc <HAL_SYSTICK_Config+0x2c>)
    SCB->SHP[_SHP_IDX(IRQn)] = ((uint32_t)(SCB->SHP[_SHP_IDX(IRQn)] & ~(0xFFUL << _BIT_SHIFT(IRQn))) |
 800059e:	4808      	ldr	r0, [pc, #32]	; (80005c0 <HAL_SYSTICK_Config+0x30>)
  SysTick->LOAD  = (uint32_t)(ticks - 1UL);                         /* set reload register */
 80005a0:	6053      	str	r3, [r2, #4]
    SCB->SHP[_SHP_IDX(IRQn)] = ((uint32_t)(SCB->SHP[_SHP_IDX(IRQn)] & ~(0xFFUL << _BIT_SHIFT(IRQn))) |
 80005a2:	6a03      	ldr	r3, [r0, #32]
 80005a4:	0609      	lsls	r1, r1, #24
 80005a6:	021b      	lsls	r3, r3, #8
 80005a8:	0a1b      	lsrs	r3, r3, #8
 80005aa:	430b      	orrs	r3, r1
 80005ac:	6203      	str	r3, [r0, #32]
  NVIC_SetPriority (SysTick_IRQn, (1UL << __NVIC_PRIO_BITS) - 1UL); /* set Priority for Systick Interrupt */
  SysTick->VAL   = 0UL;                                             /* Load the SysTick Counter Value */
 80005ae:	2000      	movs	r0, #0
  SysTick->CTRL  = SysTick_CTRL_CLKSOURCE_Msk |
 80005b0:	2307      	movs	r3, #7
  SysTick->VAL   = 0UL;                                             /* Load the SysTick Counter Value */
 80005b2:	6090      	str	r0, [r2, #8]
  SysTick->CTRL  = SysTick_CTRL_CLKSOURCE_Msk |
 80005b4:	6013      	str	r3, [r2, #0]
  *                  - 1  Function failed.
  */
uint32_t HAL_SYSTICK_Config(uint32_t TicksNumb)
{
   return SysTick_Config(TicksNumb);
}
 80005b6:	4770      	bx	lr
 80005b8:	00ffffff 	.word	0x00ffffff
 80005bc:	e000e010 	.word	0xe000e010
 80005c0:	e000ed00 	.word	0xe000ed00

080005c4 <HAL_GPIO_Init>:
  * @param  GPIO_Init pointer to a GPIO_InitTypeDef structure that contains
  *                    the configuration information for the specified GPIO peripheral.
  * @retval None
  */
void HAL_GPIO_Init(GPIO_TypeDef  *GPIOx, GPIO_InitTypeDef *GPIO_Init)
{
 80005c4:	b5f0      	push	{r4, r5, r6, r7, lr}
        /* Enable SYSCFG Clock */
        __HAL_RCC_SYSCFG_CLK_ENABLE();
        
        temp = SYSCFG->EXTICR[position >> 2U];
        CLEAR_BIT(temp, ((uint32_t)0x0FU) << (4U * (position & 0x03U)));
        SET_BIT(temp, (GPIO_GET_INDEX(GPIOx)) << (4 * (position & 0x03U)));
 80005c6:	4a53      	ldr	r2, [pc, #332]	; (8000714 <HAL_GPIO_Init+0x150>)
  while (((GPIO_Init->Pin) >> position) != 0)
 80005c8:	680b      	ldr	r3, [r1, #0]
        SET_BIT(temp, (GPIO_GET_INDEX(GPIOx)) << (4 * (position & 0x03U)));
 80005ca:	1882      	adds	r2, r0, r2
 80005cc:	1e54      	subs	r4, r2, #1
 80005ce:	41a2      	sbcs	r2, r4
{
 80005d0:	b085      	sub	sp, #20
  while (((GPIO_Init->Pin) >> position) != 0)
 80005d2:	9301      	str	r3, [sp, #4]
  uint32_t position = 0x00U;
 80005d4:	2300      	movs	r3, #0
        SET_BIT(temp, (GPIO_GET_INDEX(GPIOx)) << (4 * (position & 0x03U)));
 80005d6:	3205      	adds	r2, #5
 80005d8:	9203      	str	r2, [sp, #12]
  while (((GPIO_Init->Pin) >> position) != 0)
 80005da:	9a01      	ldr	r2, [sp, #4]
 80005dc:	40da      	lsrs	r2, r3
 80005de:	d101      	bne.n	80005e4 <HAL_GPIO_Init+0x20>
        EXTI->FTSR = temp;
      }
    }
    position++;
  }
}
 80005e0:	b005      	add	sp, #20
 80005e2:	bdf0      	pop	{r4, r5, r6, r7, pc}
    iocurrent = (GPIO_Init->Pin) & (1U << position);
 80005e4:	2501      	movs	r5, #1
 80005e6:	409d      	lsls	r5, r3
 80005e8:	9a01      	ldr	r2, [sp, #4]
 80005ea:	402a      	ands	r2, r5
 80005ec:	9200      	str	r2, [sp, #0]
    if(iocurrent)
 80005ee:	d100      	bne.n	80005f2 <HAL_GPIO_Init+0x2e>
 80005f0:	e08d      	b.n	800070e <HAL_GPIO_Init+0x14a>
      if((GPIO_Init->Mode == GPIO_MODE_AF_PP) || (GPIO_Init->Mode == GPIO_MODE_AF_OD)) 
 80005f2:	684a      	ldr	r2, [r1, #4]
 80005f4:	4694      	mov	ip, r2
 80005f6:	2210      	movs	r2, #16
 80005f8:	4664      	mov	r4, ip
 80005fa:	4394      	bics	r4, r2
 80005fc:	0022      	movs	r2, r4
 80005fe:	3c01      	subs	r4, #1
 8000600:	2a02      	cmp	r2, #2
 8000602:	d11f      	bne.n	8000644 <HAL_GPIO_Init+0x80>
        temp &= ~((uint32_t)0xFU << ((uint32_t)(position & (uint32_t)0x07U) * 4U)) ;
 8000604:	2407      	movs	r4, #7
 8000606:	270f      	movs	r7, #15
 8000608:	401c      	ands	r4, r3
 800060a:	00a4      	lsls	r4, r4, #2
 800060c:	40a7      	lsls	r7, r4
        temp = GPIOx->AFR[position >> 3U];
 800060e:	08da      	lsrs	r2, r3, #3
 8000610:	0092      	lsls	r2, r2, #2
 8000612:	1882      	adds	r2, r0, r2
 8000614:	6a16      	ldr	r6, [r2, #32]
        temp &= ~((uint32_t)0xFU << ((uint32_t)(position & (uint32_t)0x07U) * 4U)) ;
 8000616:	43be      	bics	r6, r7
        temp |= ((uint32_t)(GPIO_Init->Alternate) << (((uint32_t)position & (uint32_t)0x07U) * 4U)) ;
 8000618:	690f      	ldr	r7, [r1, #16]
 800061a:	40a7      	lsls	r7, r4
 800061c:	433e      	orrs	r6, r7
        GPIOx->AFR[position >> 3U] = temp;
 800061e:	6216      	str	r6, [r2, #32]
        temp &= ~(GPIO_OSPEEDER_OSPEED0 << (position * 2U));
 8000620:	2403      	movs	r4, #3
 8000622:	005e      	lsls	r6, r3, #1
 8000624:	40b4      	lsls	r4, r6
        temp = GPIOx->OSPEEDR;
 8000626:	6882      	ldr	r2, [r0, #8]
        temp &= ~(GPIO_OSPEEDER_OSPEED0 << (position * 2U));
 8000628:	43a2      	bics	r2, r4
        temp |= (GPIO_Init->Speed << (position * 2U));
 800062a:	68cc      	ldr	r4, [r1, #12]
 800062c:	40b4      	lsls	r4, r6
 800062e:	4322      	orrs	r2, r4
        GPIOx->OSPEEDR = temp;
 8000630:	6082      	str	r2, [r0, #8]
        temp |= (((GPIO_Init->Mode & GPIO_OUTPUT_TYPE) >> 4U) << position);
 8000632:	4662      	mov	r2, ip
 8000634:	06d2      	lsls	r2, r2, #27
 8000636:	0fd2      	lsrs	r2, r2, #31
 8000638:	409a      	lsls	r2, r3
        temp= GPIOx->OTYPER;
 800063a:	6844      	ldr	r4, [r0, #4]
        temp &= ~(GPIO_OTYPER_OT_0 << position) ;
 800063c:	43ac      	bics	r4, r5
        temp |= (((GPIO_Init->Mode & GPIO_OUTPUT_TYPE) >> 4U) << position);
 800063e:	4322      	orrs	r2, r4
        GPIOx->OTYPER = temp;
 8000640:	6042      	str	r2, [r0, #4]
 8000642:	e001      	b.n	8000648 <HAL_GPIO_Init+0x84>
      if((GPIO_Init->Mode == GPIO_MODE_OUTPUT_PP) || (GPIO_Init->Mode == GPIO_MODE_AF_PP) ||
 8000644:	2c01      	cmp	r4, #1
 8000646:	d9eb      	bls.n	8000620 <HAL_GPIO_Init+0x5c>
      temp &= ~(GPIO_MODER_MODE0 << (position * 2U));
 8000648:	2603      	movs	r6, #3
 800064a:	0034      	movs	r4, r6
 800064c:	005d      	lsls	r5, r3, #1
 800064e:	40ac      	lsls	r4, r5
      temp |= ((GPIO_Init->Mode & GPIO_MODE) << (position * 2U));
 8000650:	4662      	mov	r2, ip
      temp &= ~(GPIO_MODER_MODE0 << (position * 2U));
 8000652:	43e4      	mvns	r4, r4
      temp |= ((GPIO_Init->Mode & GPIO_MODE) << (position * 2U));
 8000654:	4032      	ands	r2, r6
 8000656:	40aa      	lsls	r2, r5
      temp = GPIOx->MODER;
 8000658:	6807      	ldr	r7, [r0, #0]
      temp &= ~(GPIO_MODER_MODE0 << (position * 2U));
 800065a:	4027      	ands	r7, r4
      temp |= ((GPIO_Init->Mode & GPIO_MODE) << (position * 2U));
 800065c:	433a      	orrs	r2, r7
      GPIOx->MODER = temp;
 800065e:	6002      	str	r2, [r0, #0]
      temp = GPIOx->PUPDR;
 8000660:	68c2      	ldr	r2, [r0, #12]
      temp &= ~(GPIO_PUPDR_PUPD0 << (position * 2U));
 8000662:	4014      	ands	r4, r2
      temp |= ((GPIO_Init->Pull) << (position * 2U)); 
 8000664:	688a      	ldr	r2, [r1, #8]
 8000666:	40aa      	lsls	r2, r5
 8000668:	4314      	orrs	r4, r2
      if((GPIO_Init->Mode & EXTI_MODE) == EXTI_MODE) 
 800066a:	4662      	mov	r2, ip
      GPIOx->PUPDR = temp;
 800066c:	60c4      	str	r4, [r0, #12]
      if((GPIO_Init->Mode & EXTI_MODE) == EXTI_MODE) 
 800066e:	00d2      	lsls	r2, r2, #3
 8000670:	d54d      	bpl.n	800070e <HAL_GPIO_Init+0x14a>
        __HAL_RCC_SYSCFG_CLK_ENABLE();
 8000672:	2501      	movs	r5, #1
 8000674:	4c28      	ldr	r4, [pc, #160]	; (8000718 <HAL_GPIO_Init+0x154>)
        CLEAR_BIT(temp, ((uint32_t)0x0FU) << (4U * (position & 0x03U)));
 8000676:	270f      	movs	r7, #15
        __HAL_RCC_SYSCFG_CLK_ENABLE();
 8000678:	6b62      	ldr	r2, [r4, #52]	; 0x34
 800067a:	432a      	orrs	r2, r5
        CLEAR_BIT(temp, ((uint32_t)0x0FU) << (4U * (position & 0x03U)));
 800067c:	001d      	movs	r5, r3
 800067e:	4035      	ands	r5, r6
 8000680:	00ad      	lsls	r5, r5, #2
 8000682:	40af      	lsls	r7, r5
        __HAL_RCC_SYSCFG_CLK_ENABLE();
 8000684:	6362      	str	r2, [r4, #52]	; 0x34
 8000686:	4a25      	ldr	r2, [pc, #148]	; (800071c <HAL_GPIO_Init+0x158>)
        temp = SYSCFG->EXTICR[position >> 2U];
 8000688:	089c      	lsrs	r4, r3, #2
 800068a:	00a4      	lsls	r4, r4, #2
 800068c:	18a4      	adds	r4, r4, r2
 800068e:	68a2      	ldr	r2, [r4, #8]
        CLEAR_BIT(temp, ((uint32_t)0x0FU) << (4U * (position & 0x03U)));
 8000690:	43ba      	bics	r2, r7
        SET_BIT(temp, (GPIO_GET_INDEX(GPIOx)) << (4 * (position & 0x03U)));
 8000692:	27a0      	movs	r7, #160	; 0xa0
        CLEAR_BIT(temp, ((uint32_t)0x0FU) << (4U * (position & 0x03U)));
 8000694:	9202      	str	r2, [sp, #8]
        SET_BIT(temp, (GPIO_GET_INDEX(GPIOx)) << (4 * (position & 0x03U)));
 8000696:	05ff      	lsls	r7, r7, #23
 8000698:	2200      	movs	r2, #0
 800069a:	42b8      	cmp	r0, r7
 800069c:	d00c      	beq.n	80006b8 <HAL_GPIO_Init+0xf4>
 800069e:	4f20      	ldr	r7, [pc, #128]	; (8000720 <HAL_GPIO_Init+0x15c>)
 80006a0:	3201      	adds	r2, #1
 80006a2:	42b8      	cmp	r0, r7
 80006a4:	d008      	beq.n	80006b8 <HAL_GPIO_Init+0xf4>
 80006a6:	4f1f      	ldr	r7, [pc, #124]	; (8000724 <HAL_GPIO_Init+0x160>)
 80006a8:	3201      	adds	r2, #1
 80006aa:	42b8      	cmp	r0, r7
 80006ac:	d004      	beq.n	80006b8 <HAL_GPIO_Init+0xf4>
 80006ae:	4f1e      	ldr	r7, [pc, #120]	; (8000728 <HAL_GPIO_Init+0x164>)
 80006b0:	0032      	movs	r2, r6
 80006b2:	42b8      	cmp	r0, r7
 80006b4:	d000      	beq.n	80006b8 <HAL_GPIO_Init+0xf4>
 80006b6:	9a03      	ldr	r2, [sp, #12]
 80006b8:	40aa      	lsls	r2, r5
        if((GPIO_Init->Mode & GPIO_MODE_IT) == GPIO_MODE_IT)
 80006ba:	4667      	mov	r7, ip
        SET_BIT(temp, (GPIO_GET_INDEX(GPIOx)) << (4 * (position & 0x03U)));
 80006bc:	9d02      	ldr	r5, [sp, #8]
 80006be:	432a      	orrs	r2, r5
        SYSCFG->EXTICR[position >> 2U] = temp;
 80006c0:	60a2      	str	r2, [r4, #8]
        temp = EXTI->IMR;
 80006c2:	4a1a      	ldr	r2, [pc, #104]	; (800072c <HAL_GPIO_Init+0x168>)
        temp &= ~((uint32_t)iocurrent);
 80006c4:	9c00      	ldr	r4, [sp, #0]
        temp = EXTI->IMR;
 80006c6:	6816      	ldr	r6, [r2, #0]
          temp |= iocurrent;
 80006c8:	9d00      	ldr	r5, [sp, #0]
        temp &= ~((uint32_t)iocurrent);
 80006ca:	43e4      	mvns	r4, r4
          temp |= iocurrent;
 80006cc:	4335      	orrs	r5, r6
        if((GPIO_Init->Mode & GPIO_MODE_IT) == GPIO_MODE_IT)
 80006ce:	03ff      	lsls	r7, r7, #15
 80006d0:	d401      	bmi.n	80006d6 <HAL_GPIO_Init+0x112>
        temp &= ~((uint32_t)iocurrent);
 80006d2:	0035      	movs	r5, r6
 80006d4:	4025      	ands	r5, r4
        if((GPIO_Init->Mode & GPIO_MODE_EVT) == GPIO_MODE_EVT)
 80006d6:	4667      	mov	r7, ip
        EXTI->IMR = temp;
 80006d8:	6015      	str	r5, [r2, #0]
        temp = EXTI->EMR;
 80006da:	6856      	ldr	r6, [r2, #4]
          temp |= iocurrent;
 80006dc:	9d00      	ldr	r5, [sp, #0]
 80006de:	4335      	orrs	r5, r6
        if((GPIO_Init->Mode & GPIO_MODE_EVT) == GPIO_MODE_EVT)
 80006e0:	03bf      	lsls	r7, r7, #14
 80006e2:	d401      	bmi.n	80006e8 <HAL_GPIO_Init+0x124>
        temp &= ~((uint32_t)iocurrent);
 80006e4:	0035      	movs	r5, r6
 80006e6:	4025      	ands	r5, r4
        if((GPIO_Init->Mode & RISING_EDGE) == RISING_EDGE)
 80006e8:	4667      	mov	r7, ip
        EXTI->EMR = temp;
 80006ea:	6055      	str	r5, [r2, #4]
        temp = EXTI->RTSR;
 80006ec:	6896      	ldr	r6, [r2, #8]
          temp |= iocurrent;
 80006ee:	9d00      	ldr	r5, [sp, #0]
 80006f0:	4335      	orrs	r5, r6
        if((GPIO_Init->Mode & RISING_EDGE) == RISING_EDGE)
 80006f2:	02ff      	lsls	r7, r7, #11
 80006f4:	d401      	bmi.n	80006fa <HAL_GPIO_Init+0x136>
        temp &= ~((uint32_t)iocurrent);
 80006f6:	0035      	movs	r5, r6
 80006f8:	4025      	ands	r5, r4
        if((GPIO_Init->Mode & FALLING_EDGE) == FALLING_EDGE)
 80006fa:	4667      	mov	r7, ip
        EXTI->RTSR = temp;
 80006fc:	6095      	str	r5, [r2, #8]
        temp = EXTI->FTSR;
 80006fe:	68d5      	ldr	r5, [r2, #12]
          temp |= iocurrent;
 8000700:	9e00      	ldr	r6, [sp, #0]
 8000702:	432e      	orrs	r6, r5
        if((GPIO_Init->Mode & FALLING_EDGE) == FALLING_EDGE)
 8000704:	02bf      	lsls	r7, r7, #10
 8000706:	d401      	bmi.n	800070c <HAL_GPIO_Init+0x148>
        temp &= ~((uint32_t)iocurrent);
 8000708:	4025      	ands	r5, r4
 800070a:	002e      	movs	r6, r5
        EXTI->FTSR = temp;
 800070c:	60d6      	str	r6, [r2, #12]
    position++;
 800070e:	3301      	adds	r3, #1
 8000710:	e763      	b.n	80005da <HAL_GPIO_Init+0x16>
 8000712:	46c0      	nop			; (mov r8, r8)
 8000714:	afffe400 	.word	0xafffe400
 8000718:	40021000 	.word	0x40021000
 800071c:	40010000 	.word	0x40010000
 8000720:	50000400 	.word	0x50000400
 8000724:	50000800 	.word	0x50000800
 8000728:	50000c00 	.word	0x50000c00
 800072c:	40010400 	.word	0x40010400

08000730 <HAL_GPIO_DeInit>:
  *                   This parameter can be one of GPIO_PIN_x where x can be (0..15).
  *                   All port bits are not necessarily available on all GPIOs.
  * @retval None
  */
void HAL_GPIO_DeInit(GPIO_TypeDef  *GPIOx, uint32_t GPIO_Pin)
{ 
 8000730:	b5f0      	push	{r4, r5, r6, r7, lr}
      /*------------------------- EXTI Mode Configuration --------------------*/
      /* Clear the External Interrupt or Event for the current IO */
      
      tmp = SYSCFG->EXTICR[position >> 2U];
      tmp &= (((uint32_t)0x0FU) << (4U * (position & 0x03U)));
      if(tmp == (GPIO_GET_INDEX(GPIOx) << (4U * (position & 0x03U))))
 8000732:	4a37      	ldr	r2, [pc, #220]	; (8000810 <HAL_GPIO_DeInit+0xe0>)
{ 
 8000734:	b085      	sub	sp, #20
      if(tmp == (GPIO_GET_INDEX(GPIOx) << (4U * (position & 0x03U))))
 8000736:	1882      	adds	r2, r0, r2
{ 
 8000738:	9101      	str	r1, [sp, #4]
      if(tmp == (GPIO_GET_INDEX(GPIOx) << (4U * (position & 0x03U))))
 800073a:	1e51      	subs	r1, r2, #1
 800073c:	418a      	sbcs	r2, r1
  uint32_t position = 0x00U;
 800073e:	2300      	movs	r3, #0
      if(tmp == (GPIO_GET_INDEX(GPIOx) << (4U * (position & 0x03U))))
 8000740:	3205      	adds	r2, #5
 8000742:	9203      	str	r2, [sp, #12]
  while ((GPIO_Pin >> position) != 0)
 8000744:	9a01      	ldr	r2, [sp, #4]
 8000746:	40da      	lsrs	r2, r3
 8000748:	d101      	bne.n	800074e <HAL_GPIO_DeInit+0x1e>
        EXTI->FTSR &= ~((uint32_t)iocurrent);
      }
    }
     position++;
  }
}
 800074a:	b005      	add	sp, #20
 800074c:	bdf0      	pop	{r4, r5, r6, r7, pc}
    iocurrent = (GPIO_Pin) & (1U << position);
 800074e:	2201      	movs	r2, #1
 8000750:	409a      	lsls	r2, r3
 8000752:	4694      	mov	ip, r2
 8000754:	4661      	mov	r1, ip
 8000756:	9a01      	ldr	r2, [sp, #4]
 8000758:	400a      	ands	r2, r1
 800075a:	9200      	str	r2, [sp, #0]
    if(iocurrent)
 800075c:	d056      	beq.n	800080c <HAL_GPIO_DeInit+0xdc>
      GPIOx->MODER |= (GPIO_MODER_MODE0 << (position * 2U));
 800075e:	2603      	movs	r6, #3
 8000760:	0034      	movs	r4, r6
 8000762:	0059      	lsls	r1, r3, #1
 8000764:	408c      	lsls	r4, r1
 8000766:	6802      	ldr	r2, [r0, #0]
      GPIOx->AFR[position >> 3U] &= ~((uint32_t)0xFU << ((uint32_t)(position & (uint32_t)0x07U) * 4U)) ;
 8000768:	2507      	movs	r5, #7
      GPIOx->MODER |= (GPIO_MODER_MODE0 << (position * 2U));
 800076a:	4322      	orrs	r2, r4
 800076c:	6002      	str	r2, [r0, #0]
      GPIOx->AFR[position >> 3U] &= ~((uint32_t)0xFU << ((uint32_t)(position & (uint32_t)0x07U) * 4U)) ;
 800076e:	08da      	lsrs	r2, r3, #3
 8000770:	0092      	lsls	r2, r2, #2
 8000772:	1882      	adds	r2, r0, r2
 8000774:	6a11      	ldr	r1, [r2, #32]
 8000776:	401d      	ands	r5, r3
 8000778:	9102      	str	r1, [sp, #8]
 800077a:	210f      	movs	r1, #15
 800077c:	000f      	movs	r7, r1
 800077e:	00ad      	lsls	r5, r5, #2
 8000780:	40af      	lsls	r7, r5
 8000782:	003d      	movs	r5, r7
      GPIOx->OSPEEDR &= ~(GPIO_OSPEEDER_OSPEED0 << (position * 2U));
 8000784:	43e4      	mvns	r4, r4
      GPIOx->AFR[position >> 3U] &= ~((uint32_t)0xFU << ((uint32_t)(position & (uint32_t)0x07U) * 4U)) ;
 8000786:	9f02      	ldr	r7, [sp, #8]
 8000788:	43af      	bics	r7, r5
      GPIOx->OTYPER  &= ~(GPIO_OTYPER_OT_0 << position) ;
 800078a:	4665      	mov	r5, ip
      GPIOx->AFR[position >> 3U] &= ~((uint32_t)0xFU << ((uint32_t)(position & (uint32_t)0x07U) * 4U)) ;
 800078c:	6217      	str	r7, [r2, #32]
      GPIOx->OSPEEDR &= ~(GPIO_OSPEEDER_OSPEED0 << (position * 2U));
 800078e:	6882      	ldr	r2, [r0, #8]
 8000790:	4022      	ands	r2, r4
 8000792:	6082      	str	r2, [r0, #8]
      GPIOx->OTYPER  &= ~(GPIO_OTYPER_OT_0 << position) ;
 8000794:	6842      	ldr	r2, [r0, #4]
 8000796:	43aa      	bics	r2, r5
 8000798:	6042      	str	r2, [r0, #4]
      GPIOx->PUPDR &= ~(GPIO_PUPDR_PUPD0 << (position * 2U));
 800079a:	68c2      	ldr	r2, [r0, #12]
 800079c:	4014      	ands	r4, r2
 800079e:	60c4      	str	r4, [r0, #12]
      tmp = SYSCFG->EXTICR[position >> 2U];
 80007a0:	089a      	lsrs	r2, r3, #2
 80007a2:	4c1c      	ldr	r4, [pc, #112]	; (8000814 <HAL_GPIO_DeInit+0xe4>)
 80007a4:	0092      	lsls	r2, r2, #2
 80007a6:	1912      	adds	r2, r2, r4
      tmp &= (((uint32_t)0x0FU) << (4U * (position & 0x03U)));
 80007a8:	001c      	movs	r4, r3
 80007aa:	4034      	ands	r4, r6
 80007ac:	00a4      	lsls	r4, r4, #2
 80007ae:	40a1      	lsls	r1, r4
      tmp = SYSCFG->EXTICR[position >> 2U];
 80007b0:	6895      	ldr	r5, [r2, #8]
      tmp &= (((uint32_t)0x0FU) << (4U * (position & 0x03U)));
 80007b2:	000f      	movs	r7, r1
 80007b4:	400d      	ands	r5, r1
      if(tmp == (GPIO_GET_INDEX(GPIOx) << (4U * (position & 0x03U))))
 80007b6:	21a0      	movs	r1, #160	; 0xa0
 80007b8:	05c9      	lsls	r1, r1, #23
 80007ba:	468c      	mov	ip, r1
 80007bc:	2100      	movs	r1, #0
 80007be:	4560      	cmp	r0, ip
 80007c0:	d00f      	beq.n	80007e2 <HAL_GPIO_DeInit+0xb2>
 80007c2:	4915      	ldr	r1, [pc, #84]	; (8000818 <HAL_GPIO_DeInit+0xe8>)
 80007c4:	468c      	mov	ip, r1
 80007c6:	2101      	movs	r1, #1
 80007c8:	4560      	cmp	r0, ip
 80007ca:	d00a      	beq.n	80007e2 <HAL_GPIO_DeInit+0xb2>
 80007cc:	4913      	ldr	r1, [pc, #76]	; (800081c <HAL_GPIO_DeInit+0xec>)
 80007ce:	468c      	mov	ip, r1
 80007d0:	2102      	movs	r1, #2
 80007d2:	4560      	cmp	r0, ip
 80007d4:	d005      	beq.n	80007e2 <HAL_GPIO_DeInit+0xb2>
 80007d6:	4912      	ldr	r1, [pc, #72]	; (8000820 <HAL_GPIO_DeInit+0xf0>)
 80007d8:	468c      	mov	ip, r1
 80007da:	0031      	movs	r1, r6
 80007dc:	4560      	cmp	r0, ip
 80007de:	d000      	beq.n	80007e2 <HAL_GPIO_DeInit+0xb2>
 80007e0:	9903      	ldr	r1, [sp, #12]
 80007e2:	40a1      	lsls	r1, r4
 80007e4:	428d      	cmp	r5, r1
 80007e6:	d111      	bne.n	800080c <HAL_GPIO_DeInit+0xdc>
        SYSCFG->EXTICR[position >> 2U] &= ~tmp;
 80007e8:	6891      	ldr	r1, [r2, #8]
 80007ea:	43b9      	bics	r1, r7
 80007ec:	6091      	str	r1, [r2, #8]
        EXTI->IMR &= ~((uint32_t)iocurrent);
 80007ee:	9900      	ldr	r1, [sp, #0]
 80007f0:	4a0c      	ldr	r2, [pc, #48]	; (8000824 <HAL_GPIO_DeInit+0xf4>)
 80007f2:	43c9      	mvns	r1, r1
 80007f4:	6814      	ldr	r4, [r2, #0]
 80007f6:	400c      	ands	r4, r1
 80007f8:	6014      	str	r4, [r2, #0]
        EXTI->EMR &= ~((uint32_t)iocurrent);
 80007fa:	6854      	ldr	r4, [r2, #4]
 80007fc:	400c      	ands	r4, r1
 80007fe:	6054      	str	r4, [r2, #4]
        EXTI->RTSR &= ~((uint32_t)iocurrent);
 8000800:	6894      	ldr	r4, [r2, #8]
 8000802:	400c      	ands	r4, r1
 8000804:	6094      	str	r4, [r2, #8]
        EXTI->FTSR &= ~((uint32_t)iocurrent);
 8000806:	68d4      	ldr	r4, [r2, #12]
 8000808:	4021      	ands	r1, r4
 800080a:	60d1      	str	r1, [r2, #12]
     position++;
 800080c:	3301      	adds	r3, #1
 800080e:	e799      	b.n	8000744 <HAL_GPIO_DeInit+0x14>
 8000810:	afffe400 	.word	0xafffe400
 8000814:	40010000 	.word	0x40010000
 8000818:	50000400 	.word	0x50000400
 800081c:	50000800 	.word	0x50000800
 8000820:	50000c00 	.word	0x50000c00
 8000824:	40010400 	.word	0x40010400

08000828 <HAL_GPIO_ReadPin>:
  GPIO_PinState bitstatus;
  
  /* Check the parameters */
  assert_param(IS_GPIO_PIN_AVAILABLE(GPIOx,GPIO_Pin));
  
  if((GPIOx->IDR & GPIO_Pin) != (uint32_t)GPIO_PIN_RESET)
 8000828:	6900      	ldr	r0, [r0, #16]
 800082a:	4008      	ands	r0, r1
 800082c:	1e41      	subs	r1, r0, #1
 800082e:	4188      	sbcs	r0, r1
  }
  else
  {
    bitstatus = GPIO_PIN_RESET;
  }
  return bitstatus;
 8000830:	b2c0      	uxtb	r0, r0
}
 8000832:	4770      	bx	lr

08000834 <HAL_GPIO_WritePin>:
{
  /* Check the parameters */
  assert_param(IS_GPIO_PIN_AVAILABLE(GPIOx,GPIO_Pin));
  assert_param(IS_GPIO_PIN_ACTION(PinState));
  
  if(PinState != GPIO_PIN_RESET)
 8000834:	2a00      	cmp	r2, #0
 8000836:	d001      	beq.n	800083c <HAL_GPIO_WritePin+0x8>
  {
    GPIOx->BSRR = GPIO_Pin;
 8000838:	6181      	str	r1, [r0, #24]
  }
  else
  {
    GPIOx->BRR = GPIO_Pin ;
  }
}
 800083a:	4770      	bx	lr
    GPIOx->BRR = GPIO_Pin ;
 800083c:	6281      	str	r1, [r0, #40]	; 0x28
}
 800083e:	e7fc      	b.n	800083a <HAL_GPIO_WritePin+0x6>

08000840 <HAL_GPIO_TogglePin>:
void HAL_GPIO_TogglePin(GPIO_TypeDef* GPIOx, uint16_t GPIO_Pin)
{
  /* Check the parameters */
  assert_param(IS_GPIO_PIN_AVAILABLE(GPIOx,GPIO_Pin));

  GPIOx->ODR ^= GPIO_Pin;
 8000840:	6943      	ldr	r3, [r0, #20]
 8000842:	4059      	eors	r1, r3
 8000844:	6141      	str	r1, [r0, #20]
}
 8000846:	4770      	bx	lr

08000848 <HAL_RCC_GetSysClockFreq>:
  uint32_t sysclockfreq;

  tmpreg = RCC->CFGR;

  /* Get SYSCLK source -------------------------------------------------------*/
  switch (tmpreg & RCC_CFGR_SWS)
 8000848:	220c      	movs	r2, #12
  tmpreg = RCC->CFGR;
 800084a:	4b18      	ldr	r3, [pc, #96]	; (80008ac <HAL_RCC_GetSysClockFreq+0x64>)
{
 800084c:	b510      	push	{r4, lr}
  tmpreg = RCC->CFGR;
 800084e:	68d9      	ldr	r1, [r3, #12]
  switch (tmpreg & RCC_CFGR_SWS)
 8000850:	400a      	ands	r2, r1
 8000852:	2a08      	cmp	r2, #8
 8000854:	d026      	beq.n	80008a4 <HAL_RCC_GetSysClockFreq+0x5c>
 8000856:	2a0c      	cmp	r2, #12
 8000858:	d006      	beq.n	8000868 <HAL_RCC_GetSysClockFreq+0x20>
 800085a:	2a04      	cmp	r2, #4
 800085c:	d11a      	bne.n	8000894 <HAL_RCC_GetSysClockFreq+0x4c>
  {
    case RCC_SYSCLKSOURCE_STATUS_HSI:  /* HSI used as system clock source */
    {
      if ((RCC->CR & RCC_CR_HSIDIVF) != 0U)
 800085e:	681b      	ldr	r3, [r3, #0]
 8000860:	06db      	lsls	r3, r3, #27
 8000862:	d421      	bmi.n	80008a8 <HAL_RCC_GetSysClockFreq+0x60>
      {
        sysclockfreq =  (HSI_VALUE >> 2);
      }
      else
      {
        sysclockfreq =  HSI_VALUE;
 8000864:	4812      	ldr	r0, [pc, #72]	; (80008b0 <HAL_RCC_GetSysClockFreq+0x68>)
      sysclockfreq = (32768U * (1UL << (msiclkrange + 1U)));
      break;
    }
  }
  return sysclockfreq;
}
 8000866:	bd10      	pop	{r4, pc}
      pllm = PLLMulTable[(uint32_t)(tmpreg & RCC_CFGR_PLLMUL) >> RCC_CFGR_PLLMUL_Pos];
 8000868:	028a      	lsls	r2, r1, #10
 800086a:	4812      	ldr	r0, [pc, #72]	; (80008b4 <HAL_RCC_GetSysClockFreq+0x6c>)
 800086c:	0f12      	lsrs	r2, r2, #28
 800086e:	5c82      	ldrb	r2, [r0, r2]
      plld = ((uint32_t)(tmpreg & RCC_CFGR_PLLDIV) >> RCC_CFGR_PLLDIV_Pos) + 1U;
 8000870:	0209      	lsls	r1, r1, #8
      if (__HAL_RCC_GET_PLL_OSCSOURCE() != RCC_PLLSOURCE_HSI)
 8000872:	68d8      	ldr	r0, [r3, #12]
      plld = ((uint32_t)(tmpreg & RCC_CFGR_PLLDIV) >> RCC_CFGR_PLLDIV_Pos) + 1U;
 8000874:	0f89      	lsrs	r1, r1, #30
 8000876:	3101      	adds	r1, #1
      if (__HAL_RCC_GET_PLL_OSCSOURCE() != RCC_PLLSOURCE_HSI)
 8000878:	03c0      	lsls	r0, r0, #15
 800087a:	d504      	bpl.n	8000886 <HAL_RCC_GetSysClockFreq+0x3e>
        pllvco = (HSE_VALUE * pllm) / plld;
 800087c:	480e      	ldr	r0, [pc, #56]	; (80008b8 <HAL_RCC_GetSysClockFreq+0x70>)
          pllvco = ((HSI_VALUE >> 2) * pllm) / plld;
 800087e:	4350      	muls	r0, r2
 8000880:	f7ff fc42 	bl	8000108 <__udivsi3>
 8000884:	e7ef      	b.n	8000866 <HAL_RCC_GetSysClockFreq+0x1e>
        if ((RCC->CR & RCC_CR_HSIDIVF) != 0U)
 8000886:	681b      	ldr	r3, [r3, #0]
 8000888:	06db      	lsls	r3, r3, #27
 800088a:	d501      	bpl.n	8000890 <HAL_RCC_GetSysClockFreq+0x48>
          pllvco = ((HSI_VALUE >> 2) * pllm) / plld;
 800088c:	480b      	ldr	r0, [pc, #44]	; (80008bc <HAL_RCC_GetSysClockFreq+0x74>)
 800088e:	e7f6      	b.n	800087e <HAL_RCC_GetSysClockFreq+0x36>
         pllvco = (HSI_VALUE * pllm) / plld;
 8000890:	4807      	ldr	r0, [pc, #28]	; (80008b0 <HAL_RCC_GetSysClockFreq+0x68>)
 8000892:	e7f4      	b.n	800087e <HAL_RCC_GetSysClockFreq+0x36>
      sysclockfreq = (32768U * (1UL << (msiclkrange + 1U)));
 8000894:	2080      	movs	r0, #128	; 0x80
      msiclkrange = (RCC->ICSCR & RCC_ICSCR_MSIRANGE ) >> RCC_ICSCR_MSIRANGE_Pos;
 8000896:	685b      	ldr	r3, [r3, #4]
      sysclockfreq = (32768U * (1UL << (msiclkrange + 1U)));
 8000898:	0200      	lsls	r0, r0, #8
      msiclkrange = (RCC->ICSCR & RCC_ICSCR_MSIRANGE ) >> RCC_ICSCR_MSIRANGE_Pos;
 800089a:	041b      	lsls	r3, r3, #16
 800089c:	0f5b      	lsrs	r3, r3, #29
      sysclockfreq = (32768U * (1UL << (msiclkrange + 1U)));
 800089e:	3301      	adds	r3, #1
 80008a0:	4098      	lsls	r0, r3
 80008a2:	e7e0      	b.n	8000866 <HAL_RCC_GetSysClockFreq+0x1e>
      sysclockfreq = HSE_VALUE;
 80008a4:	4804      	ldr	r0, [pc, #16]	; (80008b8 <HAL_RCC_GetSysClockFreq+0x70>)
 80008a6:	e7de      	b.n	8000866 <HAL_RCC_GetSysClockFreq+0x1e>
        sysclockfreq =  (HSI_VALUE >> 2);
 80008a8:	4804      	ldr	r0, [pc, #16]	; (80008bc <HAL_RCC_GetSysClockFreq+0x74>)
  return sysclockfreq;
 80008aa:	e7dc      	b.n	8000866 <HAL_RCC_GetSysClockFreq+0x1e>
 80008ac:	40021000 	.word	0x40021000
 80008b0:	00f42400 	.word	0x00f42400
 80008b4:	08002cb6 	.word	0x08002cb6
 80008b8:	007a1200 	.word	0x007a1200
 80008bc:	003d0900 	.word	0x003d0900

080008c0 <HAL_RCC_OscConfig>:
{
 80008c0:	b5f0      	push	{r4, r5, r6, r7, lr}
 80008c2:	0005      	movs	r5, r0
 80008c4:	b087      	sub	sp, #28
  if(RCC_OscInitStruct == NULL)
 80008c6:	2800      	cmp	r0, #0
 80008c8:	d102      	bne.n	80008d0 <HAL_RCC_OscConfig+0x10>
    return HAL_ERROR;
 80008ca:	2001      	movs	r0, #1
}
 80008cc:	b007      	add	sp, #28
 80008ce:	bdf0      	pop	{r4, r5, r6, r7, pc}
  sysclk_source = __HAL_RCC_GET_SYSCLK_SOURCE();
 80008d0:	230c      	movs	r3, #12
 80008d2:	4cbe      	ldr	r4, [pc, #760]	; (8000bcc <HAL_RCC_OscConfig+0x30c>)
 80008d4:	68e6      	ldr	r6, [r4, #12]
  pll_config = __HAL_RCC_GET_PLL_OSCSOURCE();
 80008d6:	68e2      	ldr	r2, [r4, #12]
  sysclk_source = __HAL_RCC_GET_SYSCLK_SOURCE();
 80008d8:	401e      	ands	r6, r3
  pll_config = __HAL_RCC_GET_PLL_OSCSOURCE();
 80008da:	2380      	movs	r3, #128	; 0x80
 80008dc:	025b      	lsls	r3, r3, #9
 80008de:	401a      	ands	r2, r3
 80008e0:	9201      	str	r2, [sp, #4]
  if(((RCC_OscInitStruct->OscillatorType) & RCC_OSCILLATORTYPE_HSE) == RCC_OSCILLATORTYPE_HSE)
 80008e2:	6802      	ldr	r2, [r0, #0]
 80008e4:	07d2      	lsls	r2, r2, #31
 80008e6:	d441      	bmi.n	800096c <HAL_RCC_OscConfig+0xac>
  if(((RCC_OscInitStruct->OscillatorType) & RCC_OSCILLATORTYPE_HSI) == RCC_OSCILLATORTYPE_HSI)
 80008e8:	682b      	ldr	r3, [r5, #0]
 80008ea:	079b      	lsls	r3, r3, #30
 80008ec:	d500      	bpl.n	80008f0 <HAL_RCC_OscConfig+0x30>
 80008ee:	e087      	b.n	8000a00 <HAL_RCC_OscConfig+0x140>
  if(((RCC_OscInitStruct->OscillatorType) & RCC_OSCILLATORTYPE_MSI) == RCC_OSCILLATORTYPE_MSI)
 80008f0:	682b      	ldr	r3, [r5, #0]
 80008f2:	06db      	lsls	r3, r3, #27
 80008f4:	d528      	bpl.n	8000948 <HAL_RCC_OscConfig+0x88>
    if((sysclk_source == RCC_CFGR_SWS_MSI) )
 80008f6:	2e00      	cmp	r6, #0
 80008f8:	d000      	beq.n	80008fc <HAL_RCC_OscConfig+0x3c>
 80008fa:	e0d9      	b.n	8000ab0 <HAL_RCC_OscConfig+0x1f0>
      if((__HAL_RCC_GET_FLAG(RCC_FLAG_MSIRDY) != 0U) && (RCC_OscInitStruct->MSIState == RCC_MSI_OFF))
 80008fc:	6823      	ldr	r3, [r4, #0]
 80008fe:	059b      	lsls	r3, r3, #22
 8000900:	d502      	bpl.n	8000908 <HAL_RCC_OscConfig+0x48>
 8000902:	69eb      	ldr	r3, [r5, #28]
 8000904:	2b00      	cmp	r3, #0
 8000906:	d0e0      	beq.n	80008ca <HAL_RCC_OscConfig+0xa>
        __HAL_RCC_MSI_RANGE_CONFIG(RCC_OscInitStruct->MSIClockRange);
 8000908:	6862      	ldr	r2, [r4, #4]
 800090a:	49b1      	ldr	r1, [pc, #708]	; (8000bd0 <HAL_RCC_OscConfig+0x310>)
 800090c:	6a6b      	ldr	r3, [r5, #36]	; 0x24
 800090e:	400a      	ands	r2, r1
 8000910:	431a      	orrs	r2, r3
 8000912:	6062      	str	r2, [r4, #4]
        __HAL_RCC_MSI_CALIBRATIONVALUE_ADJUST(RCC_OscInitStruct->MSICalibrationValue);
 8000914:	6861      	ldr	r1, [r4, #4]
 8000916:	6a2a      	ldr	r2, [r5, #32]
 8000918:	0209      	lsls	r1, r1, #8
 800091a:	0a09      	lsrs	r1, r1, #8
 800091c:	0612      	lsls	r2, r2, #24
 800091e:	430a      	orrs	r2, r1
 8000920:	6062      	str	r2, [r4, #4]
        SystemCoreClock =  (32768U * (1UL << ((RCC_OscInitStruct->MSIClockRange >> RCC_ICSCR_MSIRANGE_Pos) + 1U)))
 8000922:	2280      	movs	r2, #128	; 0x80
 8000924:	0b5b      	lsrs	r3, r3, #13
 8000926:	3301      	adds	r3, #1
 8000928:	0212      	lsls	r2, r2, #8
 800092a:	409a      	lsls	r2, r3
 800092c:	0013      	movs	r3, r2
                           >> AHBPrescTable[((RCC->CFGR & RCC_CFGR_HPRE) >> RCC_CFGR_HPRE_Pos)];
 800092e:	68e1      	ldr	r1, [r4, #12]
        status = HAL_InitTick (TICK_INT_PRIORITY);
 8000930:	2000      	movs	r0, #0
                           >> AHBPrescTable[((RCC->CFGR & RCC_CFGR_HPRE) >> RCC_CFGR_HPRE_Pos)];
 8000932:	060a      	lsls	r2, r1, #24
 8000934:	49a7      	ldr	r1, [pc, #668]	; (8000bd4 <HAL_RCC_OscConfig+0x314>)
 8000936:	0f12      	lsrs	r2, r2, #28
 8000938:	5c8a      	ldrb	r2, [r1, r2]
 800093a:	40d3      	lsrs	r3, r2
        SystemCoreClock =  (32768U * (1UL << ((RCC_OscInitStruct->MSIClockRange >> RCC_ICSCR_MSIRANGE_Pos) + 1U)))
 800093c:	4aa6      	ldr	r2, [pc, #664]	; (8000bd8 <HAL_RCC_OscConfig+0x318>)
 800093e:	6013      	str	r3, [r2, #0]
        status = HAL_InitTick (TICK_INT_PRIORITY);
 8000940:	f7ff fda2 	bl	8000488 <HAL_InitTick>
        if(status != HAL_OK)
 8000944:	2800      	cmp	r0, #0
 8000946:	d1c1      	bne.n	80008cc <HAL_RCC_OscConfig+0xc>
  if(((RCC_OscInitStruct->OscillatorType) & RCC_OSCILLATORTYPE_LSI) == RCC_OSCILLATORTYPE_LSI)
 8000948:	682b      	ldr	r3, [r5, #0]
 800094a:	071b      	lsls	r3, r3, #28
 800094c:	d500      	bpl.n	8000950 <HAL_RCC_OscConfig+0x90>
 800094e:	e0e6      	b.n	8000b1e <HAL_RCC_OscConfig+0x25e>
  if(((RCC_OscInitStruct->OscillatorType) & RCC_OSCILLATORTYPE_LSE) == RCC_OSCILLATORTYPE_LSE)
 8000950:	682b      	ldr	r3, [r5, #0]
 8000952:	075b      	lsls	r3, r3, #29
 8000954:	d500      	bpl.n	8000958 <HAL_RCC_OscConfig+0x98>
 8000956:	e108      	b.n	8000b6a <HAL_RCC_OscConfig+0x2aa>
  if(((RCC_OscInitStruct->OscillatorType) & RCC_OSCILLATORTYPE_HSI48) == RCC_OSCILLATORTYPE_HSI48)
 8000958:	682b      	ldr	r3, [r5, #0]
 800095a:	069b      	lsls	r3, r3, #26
 800095c:	d500      	bpl.n	8000960 <HAL_RCC_OscConfig+0xa0>
 800095e:	e18d      	b.n	8000c7c <HAL_RCC_OscConfig+0x3bc>
  if ((RCC_OscInitStruct->PLL.PLLState) != RCC_PLL_NONE)
 8000960:	6aab      	ldr	r3, [r5, #40]	; 0x28
 8000962:	2b00      	cmp	r3, #0
 8000964:	d000      	beq.n	8000968 <HAL_RCC_OscConfig+0xa8>
 8000966:	e1bc      	b.n	8000ce2 <HAL_RCC_OscConfig+0x422>
  return HAL_OK;
 8000968:	2000      	movs	r0, #0
 800096a:	e7af      	b.n	80008cc <HAL_RCC_OscConfig+0xc>
    if((sysclk_source == RCC_SYSCLKSOURCE_STATUS_HSE)
 800096c:	2e08      	cmp	r6, #8
 800096e:	d004      	beq.n	800097a <HAL_RCC_OscConfig+0xba>
       || ((sysclk_source == RCC_SYSCLKSOURCE_STATUS_PLLCLK) && (pll_config == RCC_PLLSOURCE_HSE)))
 8000970:	2e0c      	cmp	r6, #12
 8000972:	d109      	bne.n	8000988 <HAL_RCC_OscConfig+0xc8>
 8000974:	9a01      	ldr	r2, [sp, #4]
 8000976:	2a00      	cmp	r2, #0
 8000978:	d006      	beq.n	8000988 <HAL_RCC_OscConfig+0xc8>
      if((__HAL_RCC_GET_FLAG(RCC_FLAG_HSERDY) != 0U) && (RCC_OscInitStruct->HSEState == RCC_HSE_OFF))
 800097a:	6823      	ldr	r3, [r4, #0]
 800097c:	039b      	lsls	r3, r3, #14
 800097e:	d5b3      	bpl.n	80008e8 <HAL_RCC_OscConfig+0x28>
 8000980:	686b      	ldr	r3, [r5, #4]
 8000982:	2b00      	cmp	r3, #0
 8000984:	d1b0      	bne.n	80008e8 <HAL_RCC_OscConfig+0x28>
 8000986:	e7a0      	b.n	80008ca <HAL_RCC_OscConfig+0xa>
      __HAL_RCC_HSE_CONFIG(RCC_OscInitStruct->HSEState);
 8000988:	686a      	ldr	r2, [r5, #4]
 800098a:	429a      	cmp	r2, r3
 800098c:	d111      	bne.n	80009b2 <HAL_RCC_OscConfig+0xf2>
 800098e:	6822      	ldr	r2, [r4, #0]
 8000990:	4313      	orrs	r3, r2
 8000992:	6023      	str	r3, [r4, #0]
        tickstart = HAL_GetTick();
 8000994:	f7ff fdac 	bl	80004f0 <HAL_GetTick>
 8000998:	0007      	movs	r7, r0
        while(__HAL_RCC_GET_FLAG(RCC_FLAG_HSERDY) == 0U)
 800099a:	2280      	movs	r2, #128	; 0x80
 800099c:	6823      	ldr	r3, [r4, #0]
 800099e:	0292      	lsls	r2, r2, #10
 80009a0:	4213      	tst	r3, r2
 80009a2:	d1a1      	bne.n	80008e8 <HAL_RCC_OscConfig+0x28>
          if((HAL_GetTick() - tickstart ) > HSE_TIMEOUT_VALUE)
 80009a4:	f7ff fda4 	bl	80004f0 <HAL_GetTick>
 80009a8:	1bc0      	subs	r0, r0, r7
 80009aa:	2864      	cmp	r0, #100	; 0x64
 80009ac:	d9f5      	bls.n	800099a <HAL_RCC_OscConfig+0xda>
            return HAL_TIMEOUT;
 80009ae:	2003      	movs	r0, #3
 80009b0:	e78c      	b.n	80008cc <HAL_RCC_OscConfig+0xc>
      __HAL_RCC_HSE_CONFIG(RCC_OscInitStruct->HSEState);
 80009b2:	21a0      	movs	r1, #160	; 0xa0
 80009b4:	02c9      	lsls	r1, r1, #11
 80009b6:	428a      	cmp	r2, r1
 80009b8:	d105      	bne.n	80009c6 <HAL_RCC_OscConfig+0x106>
 80009ba:	2280      	movs	r2, #128	; 0x80
 80009bc:	6821      	ldr	r1, [r4, #0]
 80009be:	02d2      	lsls	r2, r2, #11
 80009c0:	430a      	orrs	r2, r1
 80009c2:	6022      	str	r2, [r4, #0]
 80009c4:	e7e3      	b.n	800098e <HAL_RCC_OscConfig+0xce>
 80009c6:	6821      	ldr	r1, [r4, #0]
 80009c8:	4884      	ldr	r0, [pc, #528]	; (8000bdc <HAL_RCC_OscConfig+0x31c>)
 80009ca:	4001      	ands	r1, r0
 80009cc:	6021      	str	r1, [r4, #0]
 80009ce:	6821      	ldr	r1, [r4, #0]
 80009d0:	400b      	ands	r3, r1
 80009d2:	9305      	str	r3, [sp, #20]
 80009d4:	9b05      	ldr	r3, [sp, #20]
 80009d6:	4982      	ldr	r1, [pc, #520]	; (8000be0 <HAL_RCC_OscConfig+0x320>)
 80009d8:	6823      	ldr	r3, [r4, #0]
 80009da:	400b      	ands	r3, r1
 80009dc:	6023      	str	r3, [r4, #0]
      if(RCC_OscInitStruct->HSEState != RCC_HSE_OFF)
 80009de:	2a00      	cmp	r2, #0
 80009e0:	d1d8      	bne.n	8000994 <HAL_RCC_OscConfig+0xd4>
        tickstart = HAL_GetTick();
 80009e2:	f7ff fd85 	bl	80004f0 <HAL_GetTick>
 80009e6:	0007      	movs	r7, r0
        while(__HAL_RCC_GET_FLAG(RCC_FLAG_HSERDY) != 0U)
 80009e8:	2280      	movs	r2, #128	; 0x80
 80009ea:	6823      	ldr	r3, [r4, #0]
 80009ec:	0292      	lsls	r2, r2, #10
 80009ee:	4213      	tst	r3, r2
 80009f0:	d100      	bne.n	80009f4 <HAL_RCC_OscConfig+0x134>
 80009f2:	e779      	b.n	80008e8 <HAL_RCC_OscConfig+0x28>
           if((HAL_GetTick() - tickstart ) > HSE_TIMEOUT_VALUE)
 80009f4:	f7ff fd7c 	bl	80004f0 <HAL_GetTick>
 80009f8:	1bc0      	subs	r0, r0, r7
 80009fa:	2864      	cmp	r0, #100	; 0x64
 80009fc:	d9f4      	bls.n	80009e8 <HAL_RCC_OscConfig+0x128>
 80009fe:	e7d6      	b.n	80009ae <HAL_RCC_OscConfig+0xee>
    hsi_state = RCC_OscInitStruct->HSIState;
 8000a00:	68ea      	ldr	r2, [r5, #12]
    if((sysclk_source == RCC_SYSCLKSOURCE_STATUS_HSI)
 8000a02:	2e04      	cmp	r6, #4
 8000a04:	d004      	beq.n	8000a10 <HAL_RCC_OscConfig+0x150>
       || ((sysclk_source == RCC_SYSCLKSOURCE_STATUS_PLLCLK) && (pll_config == RCC_PLLSOURCE_HSI)))
 8000a06:	2e0c      	cmp	r6, #12
 8000a08:	d125      	bne.n	8000a56 <HAL_RCC_OscConfig+0x196>
 8000a0a:	9b01      	ldr	r3, [sp, #4]
 8000a0c:	2b00      	cmp	r3, #0
 8000a0e:	d122      	bne.n	8000a56 <HAL_RCC_OscConfig+0x196>
      if((__HAL_RCC_GET_FLAG(RCC_FLAG_HSIRDY) != 0U) && (hsi_state == RCC_HSI_OFF))
 8000a10:	6823      	ldr	r3, [r4, #0]
 8000a12:	075b      	lsls	r3, r3, #29
 8000a14:	d502      	bpl.n	8000a1c <HAL_RCC_OscConfig+0x15c>
 8000a16:	2a00      	cmp	r2, #0
 8000a18:	d100      	bne.n	8000a1c <HAL_RCC_OscConfig+0x15c>
 8000a1a:	e756      	b.n	80008ca <HAL_RCC_OscConfig+0xa>
        __HAL_RCC_HSI_CALIBRATIONVALUE_ADJUST(RCC_OscInitStruct->HSICalibrationValue);
 8000a1c:	6861      	ldr	r1, [r4, #4]
 8000a1e:	692b      	ldr	r3, [r5, #16]
 8000a20:	4870      	ldr	r0, [pc, #448]	; (8000be4 <HAL_RCC_OscConfig+0x324>)
 8000a22:	021b      	lsls	r3, r3, #8
 8000a24:	4001      	ands	r1, r0
 8000a26:	430b      	orrs	r3, r1
        __HAL_RCC_HSI_CONFIG(hsi_state);
 8000a28:	2109      	movs	r1, #9
        __HAL_RCC_HSI_CALIBRATIONVALUE_ADJUST(RCC_OscInitStruct->HSICalibrationValue);
 8000a2a:	6063      	str	r3, [r4, #4]
        __HAL_RCC_HSI_CONFIG(hsi_state);
 8000a2c:	6823      	ldr	r3, [r4, #0]
 8000a2e:	438b      	bics	r3, r1
 8000a30:	4313      	orrs	r3, r2
 8000a32:	6023      	str	r3, [r4, #0]
      SystemCoreClock = HAL_RCC_GetSysClockFreq() >> AHBPrescTable[(RCC->CFGR & RCC_CFGR_HPRE)>> RCC_CFGR_HPRE_Pos];
 8000a34:	f7ff ff08 	bl	8000848 <HAL_RCC_GetSysClockFreq>
 8000a38:	68e3      	ldr	r3, [r4, #12]
 8000a3a:	4a66      	ldr	r2, [pc, #408]	; (8000bd4 <HAL_RCC_OscConfig+0x314>)
 8000a3c:	061b      	lsls	r3, r3, #24
 8000a3e:	0f1b      	lsrs	r3, r3, #28
 8000a40:	5cd3      	ldrb	r3, [r2, r3]
 8000a42:	40d8      	lsrs	r0, r3
 8000a44:	4b64      	ldr	r3, [pc, #400]	; (8000bd8 <HAL_RCC_OscConfig+0x318>)
 8000a46:	6018      	str	r0, [r3, #0]
      status = HAL_InitTick (TICK_INT_PRIORITY);
 8000a48:	2000      	movs	r0, #0
 8000a4a:	f7ff fd1d 	bl	8000488 <HAL_InitTick>
      if(status != HAL_OK)
 8000a4e:	2800      	cmp	r0, #0
 8000a50:	d100      	bne.n	8000a54 <HAL_RCC_OscConfig+0x194>
 8000a52:	e74d      	b.n	80008f0 <HAL_RCC_OscConfig+0x30>
 8000a54:	e73a      	b.n	80008cc <HAL_RCC_OscConfig+0xc>
        __HAL_RCC_HSI_CONFIG(hsi_state);
 8000a56:	6823      	ldr	r3, [r4, #0]
      if(hsi_state != RCC_HSI_OFF)
 8000a58:	2a00      	cmp	r2, #0
 8000a5a:	d018      	beq.n	8000a8e <HAL_RCC_OscConfig+0x1ce>
        __HAL_RCC_HSI_CONFIG(hsi_state);
 8000a5c:	2109      	movs	r1, #9
 8000a5e:	438b      	bics	r3, r1
 8000a60:	4313      	orrs	r3, r2
 8000a62:	6023      	str	r3, [r4, #0]
        tickstart = HAL_GetTick();
 8000a64:	f7ff fd44 	bl	80004f0 <HAL_GetTick>
 8000a68:	0007      	movs	r7, r0
        while(__HAL_RCC_GET_FLAG(RCC_FLAG_HSIRDY) == 0U)
 8000a6a:	2204      	movs	r2, #4
 8000a6c:	6823      	ldr	r3, [r4, #0]
 8000a6e:	4213      	tst	r3, r2
 8000a70:	d007      	beq.n	8000a82 <HAL_RCC_OscConfig+0x1c2>
        __HAL_RCC_HSI_CALIBRATIONVALUE_ADJUST(RCC_OscInitStruct->HSICalibrationValue);
 8000a72:	6862      	ldr	r2, [r4, #4]
 8000a74:	692b      	ldr	r3, [r5, #16]
 8000a76:	495b      	ldr	r1, [pc, #364]	; (8000be4 <HAL_RCC_OscConfig+0x324>)
 8000a78:	021b      	lsls	r3, r3, #8
 8000a7a:	400a      	ands	r2, r1
 8000a7c:	4313      	orrs	r3, r2
 8000a7e:	6063      	str	r3, [r4, #4]
 8000a80:	e736      	b.n	80008f0 <HAL_RCC_OscConfig+0x30>
          if((HAL_GetTick() - tickstart ) > HSI_TIMEOUT_VALUE)
 8000a82:	f7ff fd35 	bl	80004f0 <HAL_GetTick>
 8000a86:	1bc0      	subs	r0, r0, r7
 8000a88:	2802      	cmp	r0, #2
 8000a8a:	d9ee      	bls.n	8000a6a <HAL_RCC_OscConfig+0x1aa>
 8000a8c:	e78f      	b.n	80009ae <HAL_RCC_OscConfig+0xee>
        __HAL_RCC_HSI_DISABLE();
 8000a8e:	2201      	movs	r2, #1
 8000a90:	4393      	bics	r3, r2
 8000a92:	6023      	str	r3, [r4, #0]
        tickstart = HAL_GetTick();
 8000a94:	f7ff fd2c 	bl	80004f0 <HAL_GetTick>
 8000a98:	0007      	movs	r7, r0
        while(__HAL_RCC_GET_FLAG(RCC_FLAG_HSIRDY) != 0U)
 8000a9a:	2204      	movs	r2, #4
 8000a9c:	6823      	ldr	r3, [r4, #0]
 8000a9e:	4213      	tst	r3, r2
 8000aa0:	d100      	bne.n	8000aa4 <HAL_RCC_OscConfig+0x1e4>
 8000aa2:	e725      	b.n	80008f0 <HAL_RCC_OscConfig+0x30>
          if((HAL_GetTick() - tickstart ) > HSI_TIMEOUT_VALUE)
 8000aa4:	f7ff fd24 	bl	80004f0 <HAL_GetTick>
 8000aa8:	1bc0      	subs	r0, r0, r7
 8000aaa:	2802      	cmp	r0, #2
 8000aac:	d9f5      	bls.n	8000a9a <HAL_RCC_OscConfig+0x1da>
 8000aae:	e77e      	b.n	80009ae <HAL_RCC_OscConfig+0xee>
      if(RCC_OscInitStruct->MSIState != RCC_MSI_OFF)
 8000ab0:	69eb      	ldr	r3, [r5, #28]
 8000ab2:	2b00      	cmp	r3, #0
 8000ab4:	d020      	beq.n	8000af8 <HAL_RCC_OscConfig+0x238>
        __HAL_RCC_MSI_ENABLE();
 8000ab6:	2380      	movs	r3, #128	; 0x80
 8000ab8:	6822      	ldr	r2, [r4, #0]
 8000aba:	005b      	lsls	r3, r3, #1
 8000abc:	4313      	orrs	r3, r2
 8000abe:	6023      	str	r3, [r4, #0]
        tickstart = HAL_GetTick();
 8000ac0:	f7ff fd16 	bl	80004f0 <HAL_GetTick>
 8000ac4:	0007      	movs	r7, r0
        while(__HAL_RCC_GET_FLAG(RCC_FLAG_MSIRDY) == 0U)
 8000ac6:	2280      	movs	r2, #128	; 0x80
 8000ac8:	6823      	ldr	r3, [r4, #0]
 8000aca:	0092      	lsls	r2, r2, #2
 8000acc:	4213      	tst	r3, r2
 8000ace:	d00d      	beq.n	8000aec <HAL_RCC_OscConfig+0x22c>
        __HAL_RCC_MSI_RANGE_CONFIG(RCC_OscInitStruct->MSIClockRange);
 8000ad0:	6863      	ldr	r3, [r4, #4]
 8000ad2:	4a3f      	ldr	r2, [pc, #252]	; (8000bd0 <HAL_RCC_OscConfig+0x310>)
 8000ad4:	4013      	ands	r3, r2
 8000ad6:	6a6a      	ldr	r2, [r5, #36]	; 0x24
 8000ad8:	4313      	orrs	r3, r2
 8000ada:	6063      	str	r3, [r4, #4]
        __HAL_RCC_MSI_CALIBRATIONVALUE_ADJUST(RCC_OscInitStruct->MSICalibrationValue);
 8000adc:	6862      	ldr	r2, [r4, #4]
 8000ade:	6a2b      	ldr	r3, [r5, #32]
 8000ae0:	0212      	lsls	r2, r2, #8
 8000ae2:	061b      	lsls	r3, r3, #24
 8000ae4:	0a12      	lsrs	r2, r2, #8
 8000ae6:	4313      	orrs	r3, r2
 8000ae8:	6063      	str	r3, [r4, #4]
 8000aea:	e72d      	b.n	8000948 <HAL_RCC_OscConfig+0x88>
          if((HAL_GetTick() - tickstart) > MSI_TIMEOUT_VALUE)
 8000aec:	f7ff fd00 	bl	80004f0 <HAL_GetTick>
 8000af0:	1bc0      	subs	r0, r0, r7
 8000af2:	2802      	cmp	r0, #2
 8000af4:	d9e7      	bls.n	8000ac6 <HAL_RCC_OscConfig+0x206>
 8000af6:	e75a      	b.n	80009ae <HAL_RCC_OscConfig+0xee>
        __HAL_RCC_MSI_DISABLE();
 8000af8:	6823      	ldr	r3, [r4, #0]
 8000afa:	4a3b      	ldr	r2, [pc, #236]	; (8000be8 <HAL_RCC_OscConfig+0x328>)
 8000afc:	4013      	ands	r3, r2
 8000afe:	6023      	str	r3, [r4, #0]
        tickstart = HAL_GetTick();
 8000b00:	f7ff fcf6 	bl	80004f0 <HAL_GetTick>
 8000b04:	0007      	movs	r7, r0
        while(__HAL_RCC_GET_FLAG(RCC_FLAG_MSIRDY) != 0U)
 8000b06:	2280      	movs	r2, #128	; 0x80
 8000b08:	6823      	ldr	r3, [r4, #0]
 8000b0a:	0092      	lsls	r2, r2, #2
 8000b0c:	4213      	tst	r3, r2
 8000b0e:	d100      	bne.n	8000b12 <HAL_RCC_OscConfig+0x252>
 8000b10:	e71a      	b.n	8000948 <HAL_RCC_OscConfig+0x88>
          if((HAL_GetTick() - tickstart) > MSI_TIMEOUT_VALUE)
 8000b12:	f7ff fced 	bl	80004f0 <HAL_GetTick>
 8000b16:	1bc0      	subs	r0, r0, r7
 8000b18:	2802      	cmp	r0, #2
 8000b1a:	d9f4      	bls.n	8000b06 <HAL_RCC_OscConfig+0x246>
 8000b1c:	e747      	b.n	80009ae <HAL_RCC_OscConfig+0xee>
    if(RCC_OscInitStruct->LSIState != RCC_LSI_OFF)
 8000b1e:	696a      	ldr	r2, [r5, #20]
 8000b20:	2301      	movs	r3, #1
 8000b22:	2a00      	cmp	r2, #0
 8000b24:	d010      	beq.n	8000b48 <HAL_RCC_OscConfig+0x288>
      __HAL_RCC_LSI_ENABLE();
 8000b26:	6d22      	ldr	r2, [r4, #80]	; 0x50
 8000b28:	4313      	orrs	r3, r2
 8000b2a:	6523      	str	r3, [r4, #80]	; 0x50
      tickstart = HAL_GetTick();
 8000b2c:	f7ff fce0 	bl	80004f0 <HAL_GetTick>
 8000b30:	0007      	movs	r7, r0
      while(__HAL_RCC_GET_FLAG(RCC_FLAG_LSIRDY) == 0U)
 8000b32:	2202      	movs	r2, #2
 8000b34:	6d23      	ldr	r3, [r4, #80]	; 0x50
 8000b36:	4213      	tst	r3, r2
 8000b38:	d000      	beq.n	8000b3c <HAL_RCC_OscConfig+0x27c>
 8000b3a:	e709      	b.n	8000950 <HAL_RCC_OscConfig+0x90>
        if((HAL_GetTick() - tickstart ) > LSI_TIMEOUT_VALUE)
 8000b3c:	f7ff fcd8 	bl	80004f0 <HAL_GetTick>
 8000b40:	1bc0      	subs	r0, r0, r7
 8000b42:	2802      	cmp	r0, #2
 8000b44:	d9f5      	bls.n	8000b32 <HAL_RCC_OscConfig+0x272>
 8000b46:	e732      	b.n	80009ae <HAL_RCC_OscConfig+0xee>
      __HAL_RCC_LSI_DISABLE();
 8000b48:	6d22      	ldr	r2, [r4, #80]	; 0x50
 8000b4a:	439a      	bics	r2, r3
 8000b4c:	6522      	str	r2, [r4, #80]	; 0x50
      tickstart = HAL_GetTick();
 8000b4e:	f7ff fccf 	bl	80004f0 <HAL_GetTick>
 8000b52:	0007      	movs	r7, r0
      while(__HAL_RCC_GET_FLAG(RCC_FLAG_LSIRDY) != 0U)
 8000b54:	2202      	movs	r2, #2
 8000b56:	6d23      	ldr	r3, [r4, #80]	; 0x50
 8000b58:	4213      	tst	r3, r2
 8000b5a:	d100      	bne.n	8000b5e <HAL_RCC_OscConfig+0x29e>
 8000b5c:	e6f8      	b.n	8000950 <HAL_RCC_OscConfig+0x90>
        if((HAL_GetTick() - tickstart ) > LSI_TIMEOUT_VALUE)
 8000b5e:	f7ff fcc7 	bl	80004f0 <HAL_GetTick>
 8000b62:	1bc0      	subs	r0, r0, r7
 8000b64:	2802      	cmp	r0, #2
 8000b66:	d9f5      	bls.n	8000b54 <HAL_RCC_OscConfig+0x294>
 8000b68:	e721      	b.n	80009ae <HAL_RCC_OscConfig+0xee>
    if(__HAL_RCC_PWR_IS_CLK_DISABLED())
 8000b6a:	2380      	movs	r3, #128	; 0x80
    FlagStatus       pwrclkchanged = RESET;
 8000b6c:	2100      	movs	r1, #0
    if(__HAL_RCC_PWR_IS_CLK_DISABLED())
 8000b6e:	6ba2      	ldr	r2, [r4, #56]	; 0x38
 8000b70:	055b      	lsls	r3, r3, #21
    FlagStatus       pwrclkchanged = RESET;
 8000b72:	9101      	str	r1, [sp, #4]
    if(__HAL_RCC_PWR_IS_CLK_DISABLED())
 8000b74:	421a      	tst	r2, r3
 8000b76:	d104      	bne.n	8000b82 <HAL_RCC_OscConfig+0x2c2>
      __HAL_RCC_PWR_CLK_ENABLE();
 8000b78:	6ba2      	ldr	r2, [r4, #56]	; 0x38
 8000b7a:	4313      	orrs	r3, r2
 8000b7c:	63a3      	str	r3, [r4, #56]	; 0x38
      pwrclkchanged = SET;
 8000b7e:	2301      	movs	r3, #1
 8000b80:	9301      	str	r3, [sp, #4]
    if(HAL_IS_BIT_CLR(PWR->CR, PWR_CR_DBP))
 8000b82:	2280      	movs	r2, #128	; 0x80
 8000b84:	4f19      	ldr	r7, [pc, #100]	; (8000bec <HAL_RCC_OscConfig+0x32c>)
 8000b86:	0052      	lsls	r2, r2, #1
 8000b88:	683b      	ldr	r3, [r7, #0]
 8000b8a:	4213      	tst	r3, r2
 8000b8c:	d008      	beq.n	8000ba0 <HAL_RCC_OscConfig+0x2e0>
    __HAL_RCC_LSE_CONFIG(RCC_OscInitStruct->LSEState);
 8000b8e:	2280      	movs	r2, #128	; 0x80
 8000b90:	68ab      	ldr	r3, [r5, #8]
 8000b92:	0052      	lsls	r2, r2, #1
 8000b94:	4293      	cmp	r3, r2
 8000b96:	d12b      	bne.n	8000bf0 <HAL_RCC_OscConfig+0x330>
 8000b98:	6d22      	ldr	r2, [r4, #80]	; 0x50
 8000b9a:	4313      	orrs	r3, r2
 8000b9c:	6523      	str	r3, [r4, #80]	; 0x50
 8000b9e:	e04c      	b.n	8000c3a <HAL_RCC_OscConfig+0x37a>
      SET_BIT(PWR->CR, PWR_CR_DBP);
 8000ba0:	2280      	movs	r2, #128	; 0x80
 8000ba2:	683b      	ldr	r3, [r7, #0]
 8000ba4:	0052      	lsls	r2, r2, #1
 8000ba6:	4313      	orrs	r3, r2
 8000ba8:	603b      	str	r3, [r7, #0]
      tickstart = HAL_GetTick();
 8000baa:	f7ff fca1 	bl	80004f0 <HAL_GetTick>
      while(HAL_IS_BIT_CLR(PWR->CR, PWR_CR_DBP))
 8000bae:	2380      	movs	r3, #128	; 0x80
 8000bb0:	005b      	lsls	r3, r3, #1
      tickstart = HAL_GetTick();
 8000bb2:	9002      	str	r0, [sp, #8]
      while(HAL_IS_BIT_CLR(PWR->CR, PWR_CR_DBP))
 8000bb4:	9303      	str	r3, [sp, #12]
 8000bb6:	683b      	ldr	r3, [r7, #0]
 8000bb8:	9a03      	ldr	r2, [sp, #12]
 8000bba:	4213      	tst	r3, r2
 8000bbc:	d1e7      	bne.n	8000b8e <HAL_RCC_OscConfig+0x2ce>
        if((HAL_GetTick() - tickstart) > RCC_DBP_TIMEOUT_VALUE)
 8000bbe:	f7ff fc97 	bl	80004f0 <HAL_GetTick>
 8000bc2:	9b02      	ldr	r3, [sp, #8]
 8000bc4:	1ac0      	subs	r0, r0, r3
 8000bc6:	2864      	cmp	r0, #100	; 0x64
 8000bc8:	d9f5      	bls.n	8000bb6 <HAL_RCC_OscConfig+0x2f6>
 8000bca:	e6f0      	b.n	80009ae <HAL_RCC_OscConfig+0xee>
 8000bcc:	40021000 	.word	0x40021000
 8000bd0:	ffff1fff 	.word	0xffff1fff
 8000bd4:	08002ca6 	.word	0x08002ca6
 8000bd8:	20000004 	.word	0x20000004
 8000bdc:	fffeffff 	.word	0xfffeffff
 8000be0:	fffbffff 	.word	0xfffbffff
 8000be4:	ffffe0ff 	.word	0xffffe0ff
 8000be8:	fffffeff 	.word	0xfffffeff
 8000bec:	40007000 	.word	0x40007000
    __HAL_RCC_LSE_CONFIG(RCC_OscInitStruct->LSEState);
 8000bf0:	2b00      	cmp	r3, #0
 8000bf2:	d116      	bne.n	8000c22 <HAL_RCC_OscConfig+0x362>
 8000bf4:	6d23      	ldr	r3, [r4, #80]	; 0x50
 8000bf6:	4a6a      	ldr	r2, [pc, #424]	; (8000da0 <HAL_RCC_OscConfig+0x4e0>)
 8000bf8:	4013      	ands	r3, r2
 8000bfa:	6523      	str	r3, [r4, #80]	; 0x50
 8000bfc:	6d23      	ldr	r3, [r4, #80]	; 0x50
 8000bfe:	4a69      	ldr	r2, [pc, #420]	; (8000da4 <HAL_RCC_OscConfig+0x4e4>)
 8000c00:	4013      	ands	r3, r2
 8000c02:	6523      	str	r3, [r4, #80]	; 0x50
      tickstart = HAL_GetTick();
 8000c04:	f7ff fc74 	bl	80004f0 <HAL_GetTick>
 8000c08:	0007      	movs	r7, r0
      while(__HAL_RCC_GET_FLAG(RCC_FLAG_LSERDY) != 0U)
 8000c0a:	2280      	movs	r2, #128	; 0x80
 8000c0c:	6d23      	ldr	r3, [r4, #80]	; 0x50
 8000c0e:	0092      	lsls	r2, r2, #2
 8000c10:	4213      	tst	r3, r2
 8000c12:	d02a      	beq.n	8000c6a <HAL_RCC_OscConfig+0x3aa>
        if((HAL_GetTick() - tickstart ) > RCC_LSE_TIMEOUT_VALUE)
 8000c14:	f7ff fc6c 	bl	80004f0 <HAL_GetTick>
 8000c18:	4b63      	ldr	r3, [pc, #396]	; (8000da8 <HAL_RCC_OscConfig+0x4e8>)
 8000c1a:	1bc0      	subs	r0, r0, r7
 8000c1c:	4298      	cmp	r0, r3
 8000c1e:	d9f4      	bls.n	8000c0a <HAL_RCC_OscConfig+0x34a>
 8000c20:	e6c5      	b.n	80009ae <HAL_RCC_OscConfig+0xee>
    __HAL_RCC_LSE_CONFIG(RCC_OscInitStruct->LSEState);
 8000c22:	21a0      	movs	r1, #160	; 0xa0
 8000c24:	00c9      	lsls	r1, r1, #3
 8000c26:	428b      	cmp	r3, r1
 8000c28:	d10b      	bne.n	8000c42 <HAL_RCC_OscConfig+0x382>
 8000c2a:	2380      	movs	r3, #128	; 0x80
 8000c2c:	6d21      	ldr	r1, [r4, #80]	; 0x50
 8000c2e:	00db      	lsls	r3, r3, #3
 8000c30:	430b      	orrs	r3, r1
 8000c32:	6523      	str	r3, [r4, #80]	; 0x50
 8000c34:	6d23      	ldr	r3, [r4, #80]	; 0x50
 8000c36:	431a      	orrs	r2, r3
 8000c38:	6522      	str	r2, [r4, #80]	; 0x50
      tickstart = HAL_GetTick();
 8000c3a:	f7ff fc59 	bl	80004f0 <HAL_GetTick>
 8000c3e:	0007      	movs	r7, r0
      while(__HAL_RCC_GET_FLAG(RCC_FLAG_LSERDY) == 0U)
 8000c40:	e00e      	b.n	8000c60 <HAL_RCC_OscConfig+0x3a0>
    __HAL_RCC_LSE_CONFIG(RCC_OscInitStruct->LSEState);
 8000c42:	6d23      	ldr	r3, [r4, #80]	; 0x50
 8000c44:	4a56      	ldr	r2, [pc, #344]	; (8000da0 <HAL_RCC_OscConfig+0x4e0>)
 8000c46:	4013      	ands	r3, r2
 8000c48:	6523      	str	r3, [r4, #80]	; 0x50
 8000c4a:	6d23      	ldr	r3, [r4, #80]	; 0x50
 8000c4c:	4a55      	ldr	r2, [pc, #340]	; (8000da4 <HAL_RCC_OscConfig+0x4e4>)
 8000c4e:	4013      	ands	r3, r2
 8000c50:	e7a4      	b.n	8000b9c <HAL_RCC_OscConfig+0x2dc>
        if((HAL_GetTick() - tickstart ) > RCC_LSE_TIMEOUT_VALUE)
 8000c52:	f7ff fc4d 	bl	80004f0 <HAL_GetTick>
 8000c56:	4b54      	ldr	r3, [pc, #336]	; (8000da8 <HAL_RCC_OscConfig+0x4e8>)
 8000c58:	1bc0      	subs	r0, r0, r7
 8000c5a:	4298      	cmp	r0, r3
 8000c5c:	d900      	bls.n	8000c60 <HAL_RCC_OscConfig+0x3a0>
 8000c5e:	e6a6      	b.n	80009ae <HAL_RCC_OscConfig+0xee>
      while(__HAL_RCC_GET_FLAG(RCC_FLAG_LSERDY) == 0U)
 8000c60:	2280      	movs	r2, #128	; 0x80
 8000c62:	6d23      	ldr	r3, [r4, #80]	; 0x50
 8000c64:	0092      	lsls	r2, r2, #2
 8000c66:	4213      	tst	r3, r2
 8000c68:	d0f3      	beq.n	8000c52 <HAL_RCC_OscConfig+0x392>
    if(pwrclkchanged == SET)
 8000c6a:	9b01      	ldr	r3, [sp, #4]
 8000c6c:	2b01      	cmp	r3, #1
 8000c6e:	d000      	beq.n	8000c72 <HAL_RCC_OscConfig+0x3b2>
 8000c70:	e672      	b.n	8000958 <HAL_RCC_OscConfig+0x98>
      __HAL_RCC_PWR_CLK_DISABLE();
 8000c72:	6ba3      	ldr	r3, [r4, #56]	; 0x38
 8000c74:	4a4d      	ldr	r2, [pc, #308]	; (8000dac <HAL_RCC_OscConfig+0x4ec>)
 8000c76:	4013      	ands	r3, r2
 8000c78:	63a3      	str	r3, [r4, #56]	; 0x38
 8000c7a:	e66d      	b.n	8000958 <HAL_RCC_OscConfig+0x98>
      if(RCC_OscInitStruct->HSI48State != RCC_HSI48_OFF)
 8000c7c:	69a9      	ldr	r1, [r5, #24]
 8000c7e:	2301      	movs	r3, #1
 8000c80:	4a4b      	ldr	r2, [pc, #300]	; (8000db0 <HAL_RCC_OscConfig+0x4f0>)
 8000c82:	2900      	cmp	r1, #0
 8000c84:	d018      	beq.n	8000cb8 <HAL_RCC_OscConfig+0x3f8>
        __HAL_RCC_HSI48_ENABLE();
 8000c86:	68a1      	ldr	r1, [r4, #8]
 8000c88:	4319      	orrs	r1, r3
 8000c8a:	60a1      	str	r1, [r4, #8]
 8000c8c:	6b61      	ldr	r1, [r4, #52]	; 0x34
 8000c8e:	430b      	orrs	r3, r1
 8000c90:	6363      	str	r3, [r4, #52]	; 0x34
 8000c92:	2380      	movs	r3, #128	; 0x80
 8000c94:	6a11      	ldr	r1, [r2, #32]
 8000c96:	019b      	lsls	r3, r3, #6
 8000c98:	430b      	orrs	r3, r1
 8000c9a:	6213      	str	r3, [r2, #32]
        tickstart = HAL_GetTick();
 8000c9c:	f7ff fc28 	bl	80004f0 <HAL_GetTick>
 8000ca0:	0007      	movs	r7, r0
        while(__HAL_RCC_GET_FLAG(RCC_FLAG_HSI48RDY) == 0U)
 8000ca2:	2202      	movs	r2, #2
 8000ca4:	68a3      	ldr	r3, [r4, #8]
 8000ca6:	4213      	tst	r3, r2
 8000ca8:	d000      	beq.n	8000cac <HAL_RCC_OscConfig+0x3ec>
 8000caa:	e659      	b.n	8000960 <HAL_RCC_OscConfig+0xa0>
          if((HAL_GetTick() - tickstart) > HSI48_TIMEOUT_VALUE)
 8000cac:	f7ff fc20 	bl	80004f0 <HAL_GetTick>
 8000cb0:	1bc0      	subs	r0, r0, r7
 8000cb2:	2802      	cmp	r0, #2
 8000cb4:	d9f5      	bls.n	8000ca2 <HAL_RCC_OscConfig+0x3e2>
 8000cb6:	e67a      	b.n	80009ae <HAL_RCC_OscConfig+0xee>
        __HAL_RCC_HSI48_DISABLE();
 8000cb8:	68a1      	ldr	r1, [r4, #8]
 8000cba:	4399      	bics	r1, r3
 8000cbc:	60a1      	str	r1, [r4, #8]
 8000cbe:	6a13      	ldr	r3, [r2, #32]
 8000cc0:	493c      	ldr	r1, [pc, #240]	; (8000db4 <HAL_RCC_OscConfig+0x4f4>)
 8000cc2:	400b      	ands	r3, r1
 8000cc4:	6213      	str	r3, [r2, #32]
        tickstart = HAL_GetTick();
 8000cc6:	f7ff fc13 	bl	80004f0 <HAL_GetTick>
 8000cca:	0007      	movs	r7, r0
        while(__HAL_RCC_GET_FLAG(RCC_FLAG_HSI48RDY) != 0U)
 8000ccc:	2202      	movs	r2, #2
 8000cce:	68a3      	ldr	r3, [r4, #8]
 8000cd0:	4213      	tst	r3, r2
 8000cd2:	d100      	bne.n	8000cd6 <HAL_RCC_OscConfig+0x416>
 8000cd4:	e644      	b.n	8000960 <HAL_RCC_OscConfig+0xa0>
          if((HAL_GetTick() - tickstart) > HSI48_TIMEOUT_VALUE)
 8000cd6:	f7ff fc0b 	bl	80004f0 <HAL_GetTick>
 8000cda:	1bc0      	subs	r0, r0, r7
 8000cdc:	2802      	cmp	r0, #2
 8000cde:	d9f5      	bls.n	8000ccc <HAL_RCC_OscConfig+0x40c>
 8000ce0:	e665      	b.n	80009ae <HAL_RCC_OscConfig+0xee>
    if(sysclk_source != RCC_SYSCLKSOURCE_STATUS_PLLCLK)
 8000ce2:	2e0c      	cmp	r6, #12
 8000ce4:	d043      	beq.n	8000d6e <HAL_RCC_OscConfig+0x4ae>
 8000ce6:	4a34      	ldr	r2, [pc, #208]	; (8000db8 <HAL_RCC_OscConfig+0x4f8>)
      if((RCC_OscInitStruct->PLL.PLLState) == RCC_PLL_ON)
 8000ce8:	2b02      	cmp	r3, #2
 8000cea:	d12e      	bne.n	8000d4a <HAL_RCC_OscConfig+0x48a>
        __HAL_RCC_PLL_DISABLE();
 8000cec:	6823      	ldr	r3, [r4, #0]
        while(__HAL_RCC_GET_FLAG(RCC_FLAG_PLLRDY)  != 0U)
 8000cee:	2680      	movs	r6, #128	; 0x80
        __HAL_RCC_PLL_DISABLE();
 8000cf0:	4013      	ands	r3, r2
 8000cf2:	6023      	str	r3, [r4, #0]
        tickstart = HAL_GetTick();
 8000cf4:	f7ff fbfc 	bl	80004f0 <HAL_GetTick>
 8000cf8:	0007      	movs	r7, r0
        while(__HAL_RCC_GET_FLAG(RCC_FLAG_PLLRDY)  != 0U)
 8000cfa:	04b6      	lsls	r6, r6, #18
 8000cfc:	6823      	ldr	r3, [r4, #0]
 8000cfe:	4233      	tst	r3, r6
 8000d00:	d11d      	bne.n	8000d3e <HAL_RCC_OscConfig+0x47e>
        __HAL_RCC_PLL_CONFIG(RCC_OscInitStruct->PLL.PLLSource,
 8000d02:	6b29      	ldr	r1, [r5, #48]	; 0x30
 8000d04:	6aeb      	ldr	r3, [r5, #44]	; 0x2c
 8000d06:	68e2      	ldr	r2, [r4, #12]
 8000d08:	430b      	orrs	r3, r1
 8000d0a:	492c      	ldr	r1, [pc, #176]	; (8000dbc <HAL_RCC_OscConfig+0x4fc>)
 8000d0c:	400a      	ands	r2, r1
 8000d0e:	4313      	orrs	r3, r2
 8000d10:	6b6a      	ldr	r2, [r5, #52]	; 0x34
        while(__HAL_RCC_GET_FLAG(RCC_FLAG_PLLRDY)  == 0U)
 8000d12:	2580      	movs	r5, #128	; 0x80
        __HAL_RCC_PLL_CONFIG(RCC_OscInitStruct->PLL.PLLSource,
 8000d14:	4313      	orrs	r3, r2
 8000d16:	60e3      	str	r3, [r4, #12]
        __HAL_RCC_PLL_ENABLE();
 8000d18:	2380      	movs	r3, #128	; 0x80
 8000d1a:	6822      	ldr	r2, [r4, #0]
 8000d1c:	045b      	lsls	r3, r3, #17
 8000d1e:	4313      	orrs	r3, r2
 8000d20:	6023      	str	r3, [r4, #0]
        tickstart = HAL_GetTick();
 8000d22:	f7ff fbe5 	bl	80004f0 <HAL_GetTick>
 8000d26:	0006      	movs	r6, r0
        while(__HAL_RCC_GET_FLAG(RCC_FLAG_PLLRDY)  == 0U)
 8000d28:	04ad      	lsls	r5, r5, #18
 8000d2a:	6823      	ldr	r3, [r4, #0]
 8000d2c:	422b      	tst	r3, r5
 8000d2e:	d000      	beq.n	8000d32 <HAL_RCC_OscConfig+0x472>
 8000d30:	e61a      	b.n	8000968 <HAL_RCC_OscConfig+0xa8>
          if((HAL_GetTick() - tickstart ) > PLL_TIMEOUT_VALUE)
 8000d32:	f7ff fbdd 	bl	80004f0 <HAL_GetTick>
 8000d36:	1b80      	subs	r0, r0, r6
 8000d38:	2802      	cmp	r0, #2
 8000d3a:	d9f6      	bls.n	8000d2a <HAL_RCC_OscConfig+0x46a>
 8000d3c:	e637      	b.n	80009ae <HAL_RCC_OscConfig+0xee>
          if((HAL_GetTick() - tickstart ) > PLL_TIMEOUT_VALUE)
 8000d3e:	f7ff fbd7 	bl	80004f0 <HAL_GetTick>
 8000d42:	1bc0      	subs	r0, r0, r7
 8000d44:	2802      	cmp	r0, #2
 8000d46:	d9d9      	bls.n	8000cfc <HAL_RCC_OscConfig+0x43c>
 8000d48:	e631      	b.n	80009ae <HAL_RCC_OscConfig+0xee>
        __HAL_RCC_PLL_DISABLE();
 8000d4a:	6823      	ldr	r3, [r4, #0]
        while(__HAL_RCC_GET_FLAG(RCC_FLAG_PLLRDY)  != 0U)
 8000d4c:	2580      	movs	r5, #128	; 0x80
        __HAL_RCC_PLL_DISABLE();
 8000d4e:	4013      	ands	r3, r2
 8000d50:	6023      	str	r3, [r4, #0]
        tickstart = HAL_GetTick();
 8000d52:	f7ff fbcd 	bl	80004f0 <HAL_GetTick>
 8000d56:	0006      	movs	r6, r0
        while(__HAL_RCC_GET_FLAG(RCC_FLAG_PLLRDY)  != 0U)
 8000d58:	04ad      	lsls	r5, r5, #18
 8000d5a:	6823      	ldr	r3, [r4, #0]
 8000d5c:	422b      	tst	r3, r5
 8000d5e:	d100      	bne.n	8000d62 <HAL_RCC_OscConfig+0x4a2>
 8000d60:	e602      	b.n	8000968 <HAL_RCC_OscConfig+0xa8>
          if((HAL_GetTick() - tickstart ) > PLL_TIMEOUT_VALUE)
 8000d62:	f7ff fbc5 	bl	80004f0 <HAL_GetTick>
 8000d66:	1b80      	subs	r0, r0, r6
 8000d68:	2802      	cmp	r0, #2
 8000d6a:	d9f6      	bls.n	8000d5a <HAL_RCC_OscConfig+0x49a>
 8000d6c:	e61f      	b.n	80009ae <HAL_RCC_OscConfig+0xee>
      if((READ_BIT(pll_config, RCC_CFGR_PLLSRC) != RCC_OscInitStruct->PLL.PLLSource) ||
 8000d6e:	2280      	movs	r2, #128	; 0x80
      pll_config = RCC->CFGR;
 8000d70:	68e3      	ldr	r3, [r4, #12]
      if((READ_BIT(pll_config, RCC_CFGR_PLLSRC) != RCC_OscInitStruct->PLL.PLLSource) ||
 8000d72:	6ae9      	ldr	r1, [r5, #44]	; 0x2c
 8000d74:	0252      	lsls	r2, r2, #9
 8000d76:	401a      	ands	r2, r3
        return HAL_ERROR;
 8000d78:	2001      	movs	r0, #1
      if((READ_BIT(pll_config, RCC_CFGR_PLLSRC) != RCC_OscInitStruct->PLL.PLLSource) ||
 8000d7a:	428a      	cmp	r2, r1
 8000d7c:	d000      	beq.n	8000d80 <HAL_RCC_OscConfig+0x4c0>
 8000d7e:	e5a5      	b.n	80008cc <HAL_RCC_OscConfig+0xc>
         (READ_BIT(pll_config, RCC_CFGR_PLLMUL) != RCC_OscInitStruct->PLL.PLLMUL) ||
 8000d80:	22f0      	movs	r2, #240	; 0xf0
      if((READ_BIT(pll_config, RCC_CFGR_PLLSRC) != RCC_OscInitStruct->PLL.PLLSource) ||
 8000d82:	6b29      	ldr	r1, [r5, #48]	; 0x30
         (READ_BIT(pll_config, RCC_CFGR_PLLMUL) != RCC_OscInitStruct->PLL.PLLMUL) ||
 8000d84:	0392      	lsls	r2, r2, #14
 8000d86:	401a      	ands	r2, r3
      if((READ_BIT(pll_config, RCC_CFGR_PLLSRC) != RCC_OscInitStruct->PLL.PLLSource) ||
 8000d88:	428a      	cmp	r2, r1
 8000d8a:	d000      	beq.n	8000d8e <HAL_RCC_OscConfig+0x4ce>
 8000d8c:	e59e      	b.n	80008cc <HAL_RCC_OscConfig+0xc>
         (READ_BIT(pll_config, RCC_CFGR_PLLDIV) != RCC_OscInitStruct->PLL.PLLDIV))
 8000d8e:	20c0      	movs	r0, #192	; 0xc0
 8000d90:	0400      	lsls	r0, r0, #16
 8000d92:	4003      	ands	r3, r0
         (READ_BIT(pll_config, RCC_CFGR_PLLMUL) != RCC_OscInitStruct->PLL.PLLMUL) ||
 8000d94:	6b68      	ldr	r0, [r5, #52]	; 0x34
 8000d96:	1a18      	subs	r0, r3, r0
 8000d98:	1e43      	subs	r3, r0, #1
 8000d9a:	4198      	sbcs	r0, r3
    return HAL_ERROR;
 8000d9c:	b2c0      	uxtb	r0, r0
 8000d9e:	e595      	b.n	80008cc <HAL_RCC_OscConfig+0xc>
 8000da0:	fffffeff 	.word	0xfffffeff
 8000da4:	fffffbff 	.word	0xfffffbff
 8000da8:	00001388 	.word	0x00001388
 8000dac:	efffffff 	.word	0xefffffff
 8000db0:	40010000 	.word	0x40010000
 8000db4:	ffffdfff 	.word	0xffffdfff
 8000db8:	feffffff 	.word	0xfeffffff
 8000dbc:	ff02ffff 	.word	0xff02ffff

08000dc0 <HAL_RCC_ClockConfig>:
{
 8000dc0:	b5f7      	push	{r0, r1, r2, r4, r5, r6, r7, lr}
 8000dc2:	1e06      	subs	r6, r0, #0
 8000dc4:	9101      	str	r1, [sp, #4]
  if(RCC_ClkInitStruct == NULL)
 8000dc6:	d101      	bne.n	8000dcc <HAL_RCC_ClockConfig+0xc>
    return HAL_ERROR;
 8000dc8:	2001      	movs	r0, #1
}
 8000dca:	bdfe      	pop	{r1, r2, r3, r4, r5, r6, r7, pc}
  if(FLatency > __HAL_FLASH_GET_LATENCY())
 8000dcc:	2201      	movs	r2, #1
 8000dce:	4c51      	ldr	r4, [pc, #324]	; (8000f14 <HAL_RCC_ClockConfig+0x154>)
 8000dd0:	9901      	ldr	r1, [sp, #4]
 8000dd2:	6823      	ldr	r3, [r4, #0]
 8000dd4:	4013      	ands	r3, r2
 8000dd6:	428b      	cmp	r3, r1
 8000dd8:	d327      	bcc.n	8000e2a <HAL_RCC_ClockConfig+0x6a>
  if(((RCC_ClkInitStruct->ClockType) & RCC_CLOCKTYPE_HCLK) == RCC_CLOCKTYPE_HCLK)
 8000dda:	6832      	ldr	r2, [r6, #0]
 8000ddc:	0793      	lsls	r3, r2, #30
 8000dde:	d42f      	bmi.n	8000e40 <HAL_RCC_ClockConfig+0x80>
  if(((RCC_ClkInitStruct->ClockType) & RCC_CLOCKTYPE_SYSCLK) == RCC_CLOCKTYPE_SYSCLK)
 8000de0:	07d3      	lsls	r3, r2, #31
 8000de2:	d435      	bmi.n	8000e50 <HAL_RCC_ClockConfig+0x90>
  if(FLatency < __HAL_FLASH_GET_LATENCY())
 8000de4:	2301      	movs	r3, #1
 8000de6:	6822      	ldr	r2, [r4, #0]
 8000de8:	9901      	ldr	r1, [sp, #4]
 8000dea:	401a      	ands	r2, r3
 8000dec:	4291      	cmp	r1, r2
 8000dee:	d200      	bcs.n	8000df2 <HAL_RCC_ClockConfig+0x32>
 8000df0:	e081      	b.n	8000ef6 <HAL_RCC_ClockConfig+0x136>
  if(((RCC_ClkInitStruct->ClockType) & RCC_CLOCKTYPE_PCLK1) == RCC_CLOCKTYPE_PCLK1)
 8000df2:	6832      	ldr	r2, [r6, #0]
 8000df4:	4c48      	ldr	r4, [pc, #288]	; (8000f18 <HAL_RCC_ClockConfig+0x158>)
 8000df6:	0753      	lsls	r3, r2, #29
 8000df8:	d500      	bpl.n	8000dfc <HAL_RCC_ClockConfig+0x3c>
 8000dfa:	e084      	b.n	8000f06 <HAL_RCC_ClockConfig+0x146>
  if(((RCC_ClkInitStruct->ClockType) & RCC_CLOCKTYPE_PCLK2) == RCC_CLOCKTYPE_PCLK2)
 8000dfc:	0713      	lsls	r3, r2, #28
 8000dfe:	d506      	bpl.n	8000e0e <HAL_RCC_ClockConfig+0x4e>
    MODIFY_REG(RCC->CFGR, RCC_CFGR_PPRE2, ((RCC_ClkInitStruct->APB2CLKDivider) << 3));
 8000e00:	68e2      	ldr	r2, [r4, #12]
 8000e02:	6933      	ldr	r3, [r6, #16]
 8000e04:	4945      	ldr	r1, [pc, #276]	; (8000f1c <HAL_RCC_ClockConfig+0x15c>)
 8000e06:	00db      	lsls	r3, r3, #3
 8000e08:	400a      	ands	r2, r1
 8000e0a:	4313      	orrs	r3, r2
 8000e0c:	60e3      	str	r3, [r4, #12]
  SystemCoreClock = HAL_RCC_GetSysClockFreq() >> AHBPrescTable[(RCC->CFGR & RCC_CFGR_HPRE)>> RCC_CFGR_HPRE_Pos];
 8000e0e:	f7ff fd1b 	bl	8000848 <HAL_RCC_GetSysClockFreq>
 8000e12:	68e3      	ldr	r3, [r4, #12]
 8000e14:	4a42      	ldr	r2, [pc, #264]	; (8000f20 <HAL_RCC_ClockConfig+0x160>)
 8000e16:	061b      	lsls	r3, r3, #24
 8000e18:	0f1b      	lsrs	r3, r3, #28
 8000e1a:	5cd3      	ldrb	r3, [r2, r3]
 8000e1c:	40d8      	lsrs	r0, r3
 8000e1e:	4b41      	ldr	r3, [pc, #260]	; (8000f24 <HAL_RCC_ClockConfig+0x164>)
 8000e20:	6018      	str	r0, [r3, #0]
  status = HAL_InitTick(TICK_INT_PRIORITY);
 8000e22:	2000      	movs	r0, #0
 8000e24:	f7ff fb30 	bl	8000488 <HAL_InitTick>
 8000e28:	e7cf      	b.n	8000dca <HAL_RCC_ClockConfig+0xa>
    __HAL_FLASH_SET_LATENCY(FLatency);
 8000e2a:	6823      	ldr	r3, [r4, #0]
 8000e2c:	9901      	ldr	r1, [sp, #4]
 8000e2e:	4393      	bics	r3, r2
 8000e30:	430b      	orrs	r3, r1
 8000e32:	6023      	str	r3, [r4, #0]
    if(__HAL_FLASH_GET_LATENCY() != FLatency)
 8000e34:	6823      	ldr	r3, [r4, #0]
 8000e36:	4013      	ands	r3, r2
 8000e38:	9a01      	ldr	r2, [sp, #4]
 8000e3a:	429a      	cmp	r2, r3
 8000e3c:	d1c4      	bne.n	8000dc8 <HAL_RCC_ClockConfig+0x8>
 8000e3e:	e7cc      	b.n	8000dda <HAL_RCC_ClockConfig+0x1a>
    MODIFY_REG(RCC->CFGR, RCC_CFGR_HPRE, RCC_ClkInitStruct->AHBCLKDivider);
 8000e40:	20f0      	movs	r0, #240	; 0xf0
 8000e42:	4935      	ldr	r1, [pc, #212]	; (8000f18 <HAL_RCC_ClockConfig+0x158>)
 8000e44:	68cb      	ldr	r3, [r1, #12]
 8000e46:	4383      	bics	r3, r0
 8000e48:	68b0      	ldr	r0, [r6, #8]
 8000e4a:	4303      	orrs	r3, r0
 8000e4c:	60cb      	str	r3, [r1, #12]
 8000e4e:	e7c7      	b.n	8000de0 <HAL_RCC_ClockConfig+0x20>
 8000e50:	4d31      	ldr	r5, [pc, #196]	; (8000f18 <HAL_RCC_ClockConfig+0x158>)
    if(RCC_ClkInitStruct->SYSCLKSource == RCC_SYSCLKSOURCE_HSE)
 8000e52:	6872      	ldr	r2, [r6, #4]
      if(__HAL_RCC_GET_FLAG(RCC_FLAG_HSERDY) == 0U)
 8000e54:	682b      	ldr	r3, [r5, #0]
    if(RCC_ClkInitStruct->SYSCLKSource == RCC_SYSCLKSOURCE_HSE)
 8000e56:	2a02      	cmp	r2, #2
 8000e58:	d119      	bne.n	8000e8e <HAL_RCC_ClockConfig+0xce>
      if(__HAL_RCC_GET_FLAG(RCC_FLAG_HSERDY) == 0U)
 8000e5a:	039b      	lsls	r3, r3, #14
 8000e5c:	d5b4      	bpl.n	8000dc8 <HAL_RCC_ClockConfig+0x8>
    __HAL_RCC_SYSCLK_CONFIG(RCC_ClkInitStruct->SYSCLKSource);
 8000e5e:	2103      	movs	r1, #3
 8000e60:	68eb      	ldr	r3, [r5, #12]
 8000e62:	438b      	bics	r3, r1
 8000e64:	4313      	orrs	r3, r2
 8000e66:	60eb      	str	r3, [r5, #12]
    tickstart = HAL_GetTick();
 8000e68:	f7ff fb42 	bl	80004f0 <HAL_GetTick>
    if(RCC_ClkInitStruct->SYSCLKSource == RCC_SYSCLKSOURCE_HSE)
 8000e6c:	6873      	ldr	r3, [r6, #4]
    tickstart = HAL_GetTick();
 8000e6e:	0007      	movs	r7, r0
    if(RCC_ClkInitStruct->SYSCLKSource == RCC_SYSCLKSOURCE_HSE)
 8000e70:	2b02      	cmp	r3, #2
 8000e72:	d119      	bne.n	8000ea8 <HAL_RCC_ClockConfig+0xe8>
      while (__HAL_RCC_GET_SYSCLK_SOURCE() != RCC_SYSCLKSOURCE_STATUS_HSE)
 8000e74:	220c      	movs	r2, #12
 8000e76:	68eb      	ldr	r3, [r5, #12]
 8000e78:	4013      	ands	r3, r2
 8000e7a:	2b08      	cmp	r3, #8
 8000e7c:	d0b2      	beq.n	8000de4 <HAL_RCC_ClockConfig+0x24>
        if((HAL_GetTick() - tickstart ) > CLOCKSWITCH_TIMEOUT_VALUE)
 8000e7e:	f7ff fb37 	bl	80004f0 <HAL_GetTick>
 8000e82:	4b29      	ldr	r3, [pc, #164]	; (8000f28 <HAL_RCC_ClockConfig+0x168>)
 8000e84:	1bc0      	subs	r0, r0, r7
 8000e86:	4298      	cmp	r0, r3
 8000e88:	d9f4      	bls.n	8000e74 <HAL_RCC_ClockConfig+0xb4>
          return HAL_TIMEOUT;
 8000e8a:	2003      	movs	r0, #3
 8000e8c:	e79d      	b.n	8000dca <HAL_RCC_ClockConfig+0xa>
    else if(RCC_ClkInitStruct->SYSCLKSource == RCC_SYSCLKSOURCE_PLLCLK)
 8000e8e:	2a03      	cmp	r2, #3
 8000e90:	d102      	bne.n	8000e98 <HAL_RCC_ClockConfig+0xd8>
      if(__HAL_RCC_GET_FLAG(RCC_FLAG_PLLRDY) == 0U)
 8000e92:	019b      	lsls	r3, r3, #6
 8000e94:	d4e3      	bmi.n	8000e5e <HAL_RCC_ClockConfig+0x9e>
 8000e96:	e797      	b.n	8000dc8 <HAL_RCC_ClockConfig+0x8>
    else if(RCC_ClkInitStruct->SYSCLKSource == RCC_SYSCLKSOURCE_HSI)
 8000e98:	2a01      	cmp	r2, #1
 8000e9a:	d102      	bne.n	8000ea2 <HAL_RCC_ClockConfig+0xe2>
      if(__HAL_RCC_GET_FLAG(RCC_FLAG_HSIRDY) == 0U)
 8000e9c:	075b      	lsls	r3, r3, #29
 8000e9e:	d4de      	bmi.n	8000e5e <HAL_RCC_ClockConfig+0x9e>
 8000ea0:	e792      	b.n	8000dc8 <HAL_RCC_ClockConfig+0x8>
      if(__HAL_RCC_GET_FLAG(RCC_FLAG_MSIRDY) == 0U)
 8000ea2:	059b      	lsls	r3, r3, #22
 8000ea4:	d4db      	bmi.n	8000e5e <HAL_RCC_ClockConfig+0x9e>
 8000ea6:	e78f      	b.n	8000dc8 <HAL_RCC_ClockConfig+0x8>
    else if(RCC_ClkInitStruct->SYSCLKSource == RCC_SYSCLKSOURCE_PLLCLK)
 8000ea8:	2b03      	cmp	r3, #3
 8000eaa:	d10b      	bne.n	8000ec4 <HAL_RCC_ClockConfig+0x104>
      while (__HAL_RCC_GET_SYSCLK_SOURCE() != RCC_SYSCLKSOURCE_STATUS_PLLCLK)
 8000eac:	220c      	movs	r2, #12
 8000eae:	68eb      	ldr	r3, [r5, #12]
 8000eb0:	4013      	ands	r3, r2
 8000eb2:	4293      	cmp	r3, r2
 8000eb4:	d096      	beq.n	8000de4 <HAL_RCC_ClockConfig+0x24>
        if((HAL_GetTick() - tickstart ) > CLOCKSWITCH_TIMEOUT_VALUE)
 8000eb6:	f7ff fb1b 	bl	80004f0 <HAL_GetTick>
 8000eba:	4b1b      	ldr	r3, [pc, #108]	; (8000f28 <HAL_RCC_ClockConfig+0x168>)
 8000ebc:	1bc0      	subs	r0, r0, r7
 8000ebe:	4298      	cmp	r0, r3
 8000ec0:	d9f4      	bls.n	8000eac <HAL_RCC_ClockConfig+0xec>
 8000ec2:	e7e2      	b.n	8000e8a <HAL_RCC_ClockConfig+0xca>
    else if(RCC_ClkInitStruct->SYSCLKSource == RCC_SYSCLKSOURCE_HSI)
 8000ec4:	2b01      	cmp	r3, #1
 8000ec6:	d010      	beq.n	8000eea <HAL_RCC_ClockConfig+0x12a>
      while(__HAL_RCC_GET_SYSCLK_SOURCE() != RCC_SYSCLKSOURCE_STATUS_MSI)
 8000ec8:	220c      	movs	r2, #12
 8000eca:	68eb      	ldr	r3, [r5, #12]
 8000ecc:	4213      	tst	r3, r2
 8000ece:	d089      	beq.n	8000de4 <HAL_RCC_ClockConfig+0x24>
        if((HAL_GetTick() - tickstart ) > CLOCKSWITCH_TIMEOUT_VALUE)
 8000ed0:	f7ff fb0e 	bl	80004f0 <HAL_GetTick>
 8000ed4:	4b14      	ldr	r3, [pc, #80]	; (8000f28 <HAL_RCC_ClockConfig+0x168>)
 8000ed6:	1bc0      	subs	r0, r0, r7
 8000ed8:	4298      	cmp	r0, r3
 8000eda:	d9f5      	bls.n	8000ec8 <HAL_RCC_ClockConfig+0x108>
 8000edc:	e7d5      	b.n	8000e8a <HAL_RCC_ClockConfig+0xca>
        if((HAL_GetTick() - tickstart ) > CLOCKSWITCH_TIMEOUT_VALUE)
 8000ede:	f7ff fb07 	bl	80004f0 <HAL_GetTick>
 8000ee2:	4b11      	ldr	r3, [pc, #68]	; (8000f28 <HAL_RCC_ClockConfig+0x168>)
 8000ee4:	1bc0      	subs	r0, r0, r7
 8000ee6:	4298      	cmp	r0, r3
 8000ee8:	d8cf      	bhi.n	8000e8a <HAL_RCC_ClockConfig+0xca>
      while (__HAL_RCC_GET_SYSCLK_SOURCE() != RCC_SYSCLKSOURCE_STATUS_HSI)
 8000eea:	220c      	movs	r2, #12
 8000eec:	68eb      	ldr	r3, [r5, #12]
 8000eee:	4013      	ands	r3, r2
 8000ef0:	2b04      	cmp	r3, #4
 8000ef2:	d1f4      	bne.n	8000ede <HAL_RCC_ClockConfig+0x11e>
 8000ef4:	e776      	b.n	8000de4 <HAL_RCC_ClockConfig+0x24>
    __HAL_FLASH_SET_LATENCY(FLatency);
 8000ef6:	6822      	ldr	r2, [r4, #0]
 8000ef8:	439a      	bics	r2, r3
 8000efa:	6022      	str	r2, [r4, #0]
    if(__HAL_FLASH_GET_LATENCY() != FLatency)
 8000efc:	6822      	ldr	r2, [r4, #0]
 8000efe:	421a      	tst	r2, r3
 8000f00:	d000      	beq.n	8000f04 <HAL_RCC_ClockConfig+0x144>
 8000f02:	e761      	b.n	8000dc8 <HAL_RCC_ClockConfig+0x8>
 8000f04:	e775      	b.n	8000df2 <HAL_RCC_ClockConfig+0x32>
    MODIFY_REG(RCC->CFGR, RCC_CFGR_PPRE1, RCC_ClkInitStruct->APB1CLKDivider);
 8000f06:	68e3      	ldr	r3, [r4, #12]
 8000f08:	4908      	ldr	r1, [pc, #32]	; (8000f2c <HAL_RCC_ClockConfig+0x16c>)
 8000f0a:	400b      	ands	r3, r1
 8000f0c:	68f1      	ldr	r1, [r6, #12]
 8000f0e:	430b      	orrs	r3, r1
 8000f10:	60e3      	str	r3, [r4, #12]
 8000f12:	e773      	b.n	8000dfc <HAL_RCC_ClockConfig+0x3c>
 8000f14:	40022000 	.word	0x40022000
 8000f18:	40021000 	.word	0x40021000
 8000f1c:	ffffc7ff 	.word	0xffffc7ff
 8000f20:	08002ca6 	.word	0x08002ca6
 8000f24:	20000004 	.word	0x20000004
 8000f28:	00001388 	.word	0x00001388
 8000f2c:	fffff8ff 	.word	0xfffff8ff

08000f30 <HAL_RCCEx_PeriphCLKConfig>:
  assert_param(IS_RCC_PERIPHCLOCK(PeriphClkInit->PeriphClockSelection));

  /*------------------------------- RTC/LCD Configuration ------------------------*/
  if ((((PeriphClkInit->PeriphClockSelection) & RCC_PERIPHCLK_RTC) == RCC_PERIPHCLK_RTC)
#if defined(LCD)
   || (((PeriphClkInit->PeriphClockSelection) & RCC_PERIPHCLK_LCD) == RCC_PERIPHCLK_LCD)
 8000f30:	2382      	movs	r3, #130	; 0x82
{
 8000f32:	b5f7      	push	{r0, r1, r2, r4, r5, r6, r7, lr}
  if ((((PeriphClkInit->PeriphClockSelection) & RCC_PERIPHCLK_RTC) == RCC_PERIPHCLK_RTC)
 8000f34:	6802      	ldr	r2, [r0, #0]
   || (((PeriphClkInit->PeriphClockSelection) & RCC_PERIPHCLK_LCD) == RCC_PERIPHCLK_LCD)
 8000f36:	011b      	lsls	r3, r3, #4
{
 8000f38:	0005      	movs	r5, r0
  if ((((PeriphClkInit->PeriphClockSelection) & RCC_PERIPHCLK_RTC) == RCC_PERIPHCLK_RTC)
 8000f3a:	421a      	tst	r2, r3
 8000f3c:	d047      	beq.n	8000fce <HAL_RCCEx_PeriphCLKConfig+0x9e>
    FlagStatus       pwrclkchanged = RESET;

    /* As soon as function is called to change RTC clock source, activation of the
       power domain is done. */
    /* Requires to enable write access to Backup Domain of necessary */
    if(__HAL_RCC_PWR_IS_CLK_DISABLED())
 8000f3e:	2380      	movs	r3, #128	; 0x80
    FlagStatus       pwrclkchanged = RESET;
 8000f40:	2100      	movs	r1, #0
    if(__HAL_RCC_PWR_IS_CLK_DISABLED())
 8000f42:	4c5f      	ldr	r4, [pc, #380]	; (80010c0 <HAL_RCCEx_PeriphCLKConfig+0x190>)
 8000f44:	055b      	lsls	r3, r3, #21
 8000f46:	6ba2      	ldr	r2, [r4, #56]	; 0x38
    FlagStatus       pwrclkchanged = RESET;
 8000f48:	9100      	str	r1, [sp, #0]
    if(__HAL_RCC_PWR_IS_CLK_DISABLED())
 8000f4a:	421a      	tst	r2, r3
 8000f4c:	d104      	bne.n	8000f58 <HAL_RCCEx_PeriphCLKConfig+0x28>
    {
      __HAL_RCC_PWR_CLK_ENABLE();
 8000f4e:	6ba2      	ldr	r2, [r4, #56]	; 0x38
 8000f50:	4313      	orrs	r3, r2
 8000f52:	63a3      	str	r3, [r4, #56]	; 0x38
      pwrclkchanged = SET;
 8000f54:	2301      	movs	r3, #1
 8000f56:	9300      	str	r3, [sp, #0]
    }

    if(HAL_IS_BIT_CLR(PWR->CR, PWR_CR_DBP))
 8000f58:	2780      	movs	r7, #128	; 0x80
 8000f5a:	4e5a      	ldr	r6, [pc, #360]	; (80010c4 <HAL_RCCEx_PeriphCLKConfig+0x194>)
 8000f5c:	007f      	lsls	r7, r7, #1
 8000f5e:	6833      	ldr	r3, [r6, #0]
 8000f60:	423b      	tst	r3, r7
 8000f62:	d06d      	beq.n	8001040 <HAL_RCCEx_PeriphCLKConfig+0x110>
      }
    }

    /* Check if user wants to change HSE RTC prescaler whereas HSE is enabled */
    temp_reg = (RCC->CR & RCC_CR_RTCPRE);
    if ((temp_reg != (PeriphClkInit->RTCClockSelection & RCC_CR_RTCPRE))
 8000f64:	6869      	ldr	r1, [r5, #4]
    temp_reg = (RCC->CR & RCC_CR_RTCPRE);
 8000f66:	22c0      	movs	r2, #192	; 0xc0
    if ((temp_reg != (PeriphClkInit->RTCClockSelection & RCC_CR_RTCPRE))
 8000f68:	0008      	movs	r0, r1
    temp_reg = (RCC->CR & RCC_CR_RTCPRE);
 8000f6a:	6823      	ldr	r3, [r4, #0]
 8000f6c:	0392      	lsls	r2, r2, #14
 8000f6e:	4013      	ands	r3, r2
    if ((temp_reg != (PeriphClkInit->RTCClockSelection & RCC_CR_RTCPRE))
 8000f70:	4010      	ands	r0, r2
 8000f72:	4283      	cmp	r3, r0
 8000f74:	d103      	bne.n	8000f7e <HAL_RCCEx_PeriphCLKConfig+0x4e>
#if defined (LCD)
     || (temp_reg != (PeriphClkInit->LCDClockSelection & RCC_CR_RTCPRE))
 8000f76:	68a8      	ldr	r0, [r5, #8]
 8000f78:	4002      	ands	r2, r0
 8000f7a:	4293      	cmp	r3, r2
 8000f7c:	d009      	beq.n	8000f92 <HAL_RCCEx_PeriphCLKConfig+0x62>
#endif /* LCD */
       )
    { /* Check HSE State */
      if ((PeriphClkInit->RTCClockSelection & RCC_CSR_RTCSEL) == RCC_CSR_RTCSEL_HSE)
 8000f7e:	23c0      	movs	r3, #192	; 0xc0
 8000f80:	000a      	movs	r2, r1
 8000f82:	029b      	lsls	r3, r3, #10
 8000f84:	401a      	ands	r2, r3
 8000f86:	429a      	cmp	r2, r3
 8000f88:	d103      	bne.n	8000f92 <HAL_RCCEx_PeriphCLKConfig+0x62>
      {
        if (HAL_IS_BIT_SET(RCC->CR, RCC_CR_HSERDY))
 8000f8a:	6823      	ldr	r3, [r4, #0]
        {
          /* To update HSE divider, first switch-OFF HSE clock oscillator*/
          return HAL_ERROR;
 8000f8c:	2001      	movs	r0, #1
        if (HAL_IS_BIT_SET(RCC->CR, RCC_CR_HSERDY))
 8000f8e:	039b      	lsls	r3, r3, #14
 8000f90:	d466      	bmi.n	8001060 <HAL_RCCEx_PeriphCLKConfig+0x130>
        }
      }
    }

    /* Reset the Backup domain only if the RTC Clock source selection is modified from reset value */
    temp_reg = (RCC->CSR & RCC_CSR_RTCSEL);
 8000f92:	22c0      	movs	r2, #192	; 0xc0
 8000f94:	6d23      	ldr	r3, [r4, #80]	; 0x50
 8000f96:	0292      	lsls	r2, r2, #10
 8000f98:	4013      	ands	r3, r2

    if((temp_reg != 0x00000000U) && (((temp_reg != (PeriphClkInit->RTCClockSelection & RCC_CSR_RTCSEL)) \
 8000f9a:	d162      	bne.n	8001062 <HAL_RCCEx_PeriphCLKConfig+0x132>
            return HAL_TIMEOUT;
          }
        }
      }
    }
    __HAL_RCC_RTC_CONFIG(PeriphClkInit->RTCClockSelection);
 8000f9c:	6869      	ldr	r1, [r5, #4]
 8000f9e:	23c0      	movs	r3, #192	; 0xc0
 8000fa0:	000a      	movs	r2, r1
 8000fa2:	029b      	lsls	r3, r3, #10
 8000fa4:	401a      	ands	r2, r3
 8000fa6:	429a      	cmp	r2, r3
 8000fa8:	d107      	bne.n	8000fba <HAL_RCCEx_PeriphCLKConfig+0x8a>
 8000faa:	6823      	ldr	r3, [r4, #0]
 8000fac:	4846      	ldr	r0, [pc, #280]	; (80010c8 <HAL_RCCEx_PeriphCLKConfig+0x198>)
 8000fae:	4003      	ands	r3, r0
 8000fb0:	20c0      	movs	r0, #192	; 0xc0
 8000fb2:	0380      	lsls	r0, r0, #14
 8000fb4:	4001      	ands	r1, r0
 8000fb6:	430b      	orrs	r3, r1
 8000fb8:	6023      	str	r3, [r4, #0]
 8000fba:	6d23      	ldr	r3, [r4, #80]	; 0x50
 8000fbc:	431a      	orrs	r2, r3

    /* Require to disable power clock if necessary */
    if(pwrclkchanged == SET)
 8000fbe:	9b00      	ldr	r3, [sp, #0]
    __HAL_RCC_RTC_CONFIG(PeriphClkInit->RTCClockSelection);
 8000fc0:	6522      	str	r2, [r4, #80]	; 0x50
    if(pwrclkchanged == SET)
 8000fc2:	2b01      	cmp	r3, #1
 8000fc4:	d103      	bne.n	8000fce <HAL_RCCEx_PeriphCLKConfig+0x9e>
    {
      __HAL_RCC_PWR_CLK_DISABLE();
 8000fc6:	6ba3      	ldr	r3, [r4, #56]	; 0x38
 8000fc8:	4a40      	ldr	r2, [pc, #256]	; (80010cc <HAL_RCCEx_PeriphCLKConfig+0x19c>)
 8000fca:	4013      	ands	r3, r2
 8000fcc:	63a3      	str	r3, [r4, #56]	; 0x38
    }
  }

#if defined (RCC_CCIPR_USART1SEL)
  /*------------------------------- USART1 Configuration ------------------------*/
  if(((PeriphClkInit->PeriphClockSelection) & RCC_PERIPHCLK_USART1) == RCC_PERIPHCLK_USART1)
 8000fce:	682b      	ldr	r3, [r5, #0]
 8000fd0:	07da      	lsls	r2, r3, #31
 8000fd2:	d506      	bpl.n	8000fe2 <HAL_RCCEx_PeriphCLKConfig+0xb2>
  {
    /* Check the parameters */
    assert_param(IS_RCC_USART1CLKSOURCE(PeriphClkInit->Usart1ClockSelection));

    /* Configure the USART1 clock source */
    __HAL_RCC_USART1_CONFIG(PeriphClkInit->Usart1ClockSelection);
 8000fd4:	2003      	movs	r0, #3
 8000fd6:	493a      	ldr	r1, [pc, #232]	; (80010c0 <HAL_RCCEx_PeriphCLKConfig+0x190>)
 8000fd8:	6cca      	ldr	r2, [r1, #76]	; 0x4c
 8000fda:	4382      	bics	r2, r0
 8000fdc:	68e8      	ldr	r0, [r5, #12]
 8000fde:	4302      	orrs	r2, r0
 8000fe0:	64ca      	str	r2, [r1, #76]	; 0x4c
  }
#endif /* RCC_CCIPR_USART1SEL */

  /*----------------------------- USART2 Configuration --------------------------*/
  if(((PeriphClkInit->PeriphClockSelection) & RCC_PERIPHCLK_USART2) == RCC_PERIPHCLK_USART2)
 8000fe2:	079a      	lsls	r2, r3, #30
 8000fe4:	d506      	bpl.n	8000ff4 <HAL_RCCEx_PeriphCLKConfig+0xc4>
  {
    /* Check the parameters */
    assert_param(IS_RCC_USART2CLKSOURCE(PeriphClkInit->Usart2ClockSelection));

    /* Configure the USART2 clock source */
    __HAL_RCC_USART2_CONFIG(PeriphClkInit->Usart2ClockSelection);
 8000fe6:	200c      	movs	r0, #12
 8000fe8:	4935      	ldr	r1, [pc, #212]	; (80010c0 <HAL_RCCEx_PeriphCLKConfig+0x190>)
 8000fea:	6cca      	ldr	r2, [r1, #76]	; 0x4c
 8000fec:	4382      	bics	r2, r0
 8000fee:	6928      	ldr	r0, [r5, #16]
 8000ff0:	4302      	orrs	r2, r0
 8000ff2:	64ca      	str	r2, [r1, #76]	; 0x4c
  }

  /*------------------------------ LPUART1 Configuration ------------------------*/
  if(((PeriphClkInit->PeriphClockSelection) & RCC_PERIPHCLK_LPUART1) == RCC_PERIPHCLK_LPUART1)
 8000ff4:	075a      	lsls	r2, r3, #29
 8000ff6:	d506      	bpl.n	8001006 <HAL_RCCEx_PeriphCLKConfig+0xd6>
  {
    /* Check the parameters */
    assert_param(IS_RCC_LPUART1CLKSOURCE(PeriphClkInit->Lpuart1ClockSelection));

    /* Configure the LPUAR1 clock source */
    __HAL_RCC_LPUART1_CONFIG(PeriphClkInit->Lpuart1ClockSelection);
 8000ff8:	4931      	ldr	r1, [pc, #196]	; (80010c0 <HAL_RCCEx_PeriphCLKConfig+0x190>)
 8000ffa:	4835      	ldr	r0, [pc, #212]	; (80010d0 <HAL_RCCEx_PeriphCLKConfig+0x1a0>)
 8000ffc:	6cca      	ldr	r2, [r1, #76]	; 0x4c
 8000ffe:	4002      	ands	r2, r0
 8001000:	6968      	ldr	r0, [r5, #20]
 8001002:	4302      	orrs	r2, r0
 8001004:	64ca      	str	r2, [r1, #76]	; 0x4c
  }

  /*------------------------------ I2C1 Configuration ------------------------*/
  if(((PeriphClkInit->PeriphClockSelection) & RCC_PERIPHCLK_I2C1) == RCC_PERIPHCLK_I2C1)
 8001006:	071a      	lsls	r2, r3, #28
 8001008:	d506      	bpl.n	8001018 <HAL_RCCEx_PeriphCLKConfig+0xe8>
  {
    /* Check the parameters */
    assert_param(IS_RCC_I2C1CLKSOURCE(PeriphClkInit->I2c1ClockSelection));

    /* Configure the I2C1 clock source */
    __HAL_RCC_I2C1_CONFIG(PeriphClkInit->I2c1ClockSelection);
 800100a:	492d      	ldr	r1, [pc, #180]	; (80010c0 <HAL_RCCEx_PeriphCLKConfig+0x190>)
 800100c:	4831      	ldr	r0, [pc, #196]	; (80010d4 <HAL_RCCEx_PeriphCLKConfig+0x1a4>)
 800100e:	6cca      	ldr	r2, [r1, #76]	; 0x4c
 8001010:	4002      	ands	r2, r0
 8001012:	69a8      	ldr	r0, [r5, #24]
 8001014:	4302      	orrs	r2, r0
 8001016:	64ca      	str	r2, [r1, #76]	; 0x4c
  }
#endif /* RCC_CCIPR_I2C3SEL */

#if defined(USB)
 /*---------------------------- USB and RNG configuration --------------------*/
  if(((PeriphClkInit->PeriphClockSelection) & RCC_PERIPHCLK_USB) == (RCC_PERIPHCLK_USB))
 8001018:	065a      	lsls	r2, r3, #25
 800101a:	d506      	bpl.n	800102a <HAL_RCCEx_PeriphCLKConfig+0xfa>
  {
    assert_param(IS_RCC_USBCLKSOURCE(PeriphClkInit->UsbClockSelection));
    __HAL_RCC_USB_CONFIG(PeriphClkInit->UsbClockSelection);
 800101c:	4928      	ldr	r1, [pc, #160]	; (80010c0 <HAL_RCCEx_PeriphCLKConfig+0x190>)
 800101e:	482e      	ldr	r0, [pc, #184]	; (80010d8 <HAL_RCCEx_PeriphCLKConfig+0x1a8>)
 8001020:	6cca      	ldr	r2, [r1, #76]	; 0x4c
 8001022:	4002      	ands	r2, r0
 8001024:	6a28      	ldr	r0, [r5, #32]
 8001026:	4302      	orrs	r2, r0
 8001028:	64ca      	str	r2, [r1, #76]	; 0x4c
  {
    assert_param(IS_RCC_LPTIMCLK(PeriphClkInit->LptimClockSelection));
    __HAL_RCC_LPTIM1_CONFIG(PeriphClkInit->LptimClockSelection);
  }

  return HAL_OK;
 800102a:	2000      	movs	r0, #0
  if(((PeriphClkInit->PeriphClockSelection) & RCC_PERIPHCLK_LPTIM1) == (RCC_PERIPHCLK_LPTIM1))
 800102c:	061b      	lsls	r3, r3, #24
 800102e:	d517      	bpl.n	8001060 <HAL_RCCEx_PeriphCLKConfig+0x130>
    __HAL_RCC_LPTIM1_CONFIG(PeriphClkInit->LptimClockSelection);
 8001030:	4a23      	ldr	r2, [pc, #140]	; (80010c0 <HAL_RCCEx_PeriphCLKConfig+0x190>)
 8001032:	492a      	ldr	r1, [pc, #168]	; (80010dc <HAL_RCCEx_PeriphCLKConfig+0x1ac>)
 8001034:	6cd3      	ldr	r3, [r2, #76]	; 0x4c
 8001036:	400b      	ands	r3, r1
 8001038:	69e9      	ldr	r1, [r5, #28]
 800103a:	430b      	orrs	r3, r1
 800103c:	64d3      	str	r3, [r2, #76]	; 0x4c
 800103e:	e00f      	b.n	8001060 <HAL_RCCEx_PeriphCLKConfig+0x130>
      SET_BIT(PWR->CR, PWR_CR_DBP);
 8001040:	6833      	ldr	r3, [r6, #0]
 8001042:	433b      	orrs	r3, r7
 8001044:	6033      	str	r3, [r6, #0]
      tickstart = HAL_GetTick();
 8001046:	f7ff fa53 	bl	80004f0 <HAL_GetTick>
 800104a:	9001      	str	r0, [sp, #4]
      while(HAL_IS_BIT_CLR(PWR->CR, PWR_CR_DBP))
 800104c:	6833      	ldr	r3, [r6, #0]
 800104e:	423b      	tst	r3, r7
 8001050:	d188      	bne.n	8000f64 <HAL_RCCEx_PeriphCLKConfig+0x34>
        if((HAL_GetTick() - tickstart) > RCC_DBP_TIMEOUT_VALUE)
 8001052:	f7ff fa4d 	bl	80004f0 <HAL_GetTick>
 8001056:	9b01      	ldr	r3, [sp, #4]
 8001058:	1ac0      	subs	r0, r0, r3
 800105a:	2864      	cmp	r0, #100	; 0x64
 800105c:	d9f6      	bls.n	800104c <HAL_RCCEx_PeriphCLKConfig+0x11c>
          return HAL_TIMEOUT;
 800105e:	2003      	movs	r0, #3
}
 8001060:	bdfe      	pop	{r1, r2, r3, r4, r5, r6, r7, pc}
    if((temp_reg != 0x00000000U) && (((temp_reg != (PeriphClkInit->RTCClockSelection & RCC_CSR_RTCSEL)) \
 8001062:	4011      	ands	r1, r2
 8001064:	428b      	cmp	r3, r1
 8001066:	d002      	beq.n	800106e <HAL_RCCEx_PeriphCLKConfig+0x13e>
      && (((PeriphClkInit->PeriphClockSelection) & RCC_PERIPHCLK_RTC) == RCC_PERIPHCLK_RTC))
 8001068:	6829      	ldr	r1, [r5, #0]
 800106a:	0689      	lsls	r1, r1, #26
 800106c:	d408      	bmi.n	8001080 <HAL_RCCEx_PeriphCLKConfig+0x150>
      || ((temp_reg != (PeriphClkInit->LCDClockSelection & RCC_CSR_RTCSEL)) \
 800106e:	68a9      	ldr	r1, [r5, #8]
 8001070:	400a      	ands	r2, r1
 8001072:	4293      	cmp	r3, r2
 8001074:	d100      	bne.n	8001078 <HAL_RCCEx_PeriphCLKConfig+0x148>
 8001076:	e791      	b.n	8000f9c <HAL_RCCEx_PeriphCLKConfig+0x6c>
       && (((PeriphClkInit->PeriphClockSelection) & RCC_PERIPHCLK_LCD) == RCC_PERIPHCLK_LCD))
 8001078:	682b      	ldr	r3, [r5, #0]
 800107a:	051b      	lsls	r3, r3, #20
 800107c:	d400      	bmi.n	8001080 <HAL_RCCEx_PeriphCLKConfig+0x150>
 800107e:	e78d      	b.n	8000f9c <HAL_RCCEx_PeriphCLKConfig+0x6c>
      __HAL_RCC_BACKUPRESET_FORCE();
 8001080:	2280      	movs	r2, #128	; 0x80
      temp_reg = (RCC->CSR & ~(RCC_CSR_RTCSEL));
 8001082:	6d21      	ldr	r1, [r4, #80]	; 0x50
      __HAL_RCC_BACKUPRESET_FORCE();
 8001084:	6d20      	ldr	r0, [r4, #80]	; 0x50
 8001086:	0312      	lsls	r2, r2, #12
 8001088:	4302      	orrs	r2, r0
 800108a:	6522      	str	r2, [r4, #80]	; 0x50
      __HAL_RCC_BACKUPRESET_RELEASE();
 800108c:	6d22      	ldr	r2, [r4, #80]	; 0x50
      temp_reg = (RCC->CSR & ~(RCC_CSR_RTCSEL));
 800108e:	4b14      	ldr	r3, [pc, #80]	; (80010e0 <HAL_RCCEx_PeriphCLKConfig+0x1b0>)
      __HAL_RCC_BACKUPRESET_RELEASE();
 8001090:	4814      	ldr	r0, [pc, #80]	; (80010e4 <HAL_RCCEx_PeriphCLKConfig+0x1b4>)
      temp_reg = (RCC->CSR & ~(RCC_CSR_RTCSEL));
 8001092:	400b      	ands	r3, r1
      __HAL_RCC_BACKUPRESET_RELEASE();
 8001094:	4002      	ands	r2, r0
 8001096:	6522      	str	r2, [r4, #80]	; 0x50
      RCC->CSR = temp_reg;
 8001098:	6523      	str	r3, [r4, #80]	; 0x50
      if (HAL_IS_BIT_SET(temp_reg, RCC_CSR_LSEON))
 800109a:	05cb      	lsls	r3, r1, #23
 800109c:	d400      	bmi.n	80010a0 <HAL_RCCEx_PeriphCLKConfig+0x170>
 800109e:	e77d      	b.n	8000f9c <HAL_RCCEx_PeriphCLKConfig+0x6c>
        tickstart = HAL_GetTick();
 80010a0:	f7ff fa26 	bl	80004f0 <HAL_GetTick>
        while(__HAL_RCC_GET_FLAG(RCC_FLAG_LSERDY) == 0U)
 80010a4:	2780      	movs	r7, #128	; 0x80
        tickstart = HAL_GetTick();
 80010a6:	0006      	movs	r6, r0
        while(__HAL_RCC_GET_FLAG(RCC_FLAG_LSERDY) == 0U)
 80010a8:	00bf      	lsls	r7, r7, #2
 80010aa:	6d23      	ldr	r3, [r4, #80]	; 0x50
 80010ac:	423b      	tst	r3, r7
 80010ae:	d000      	beq.n	80010b2 <HAL_RCCEx_PeriphCLKConfig+0x182>
 80010b0:	e774      	b.n	8000f9c <HAL_RCCEx_PeriphCLKConfig+0x6c>
          if((HAL_GetTick() - tickstart ) > RCC_LSE_TIMEOUT_VALUE)
 80010b2:	f7ff fa1d 	bl	80004f0 <HAL_GetTick>
 80010b6:	4b0c      	ldr	r3, [pc, #48]	; (80010e8 <HAL_RCCEx_PeriphCLKConfig+0x1b8>)
 80010b8:	1b80      	subs	r0, r0, r6
 80010ba:	4298      	cmp	r0, r3
 80010bc:	d9f5      	bls.n	80010aa <HAL_RCCEx_PeriphCLKConfig+0x17a>
 80010be:	e7ce      	b.n	800105e <HAL_RCCEx_PeriphCLKConfig+0x12e>
 80010c0:	40021000 	.word	0x40021000
 80010c4:	40007000 	.word	0x40007000
 80010c8:	ffcfffff 	.word	0xffcfffff
 80010cc:	efffffff 	.word	0xefffffff
 80010d0:	fffff3ff 	.word	0xfffff3ff
 80010d4:	ffffcfff 	.word	0xffffcfff
 80010d8:	fbffffff 	.word	0xfbffffff
 80010dc:	fff3ffff 	.word	0xfff3ffff
 80010e0:	fffcffff 	.word	0xfffcffff
 80010e4:	fff7ffff 	.word	0xfff7ffff
 80010e8:	00001388 	.word	0x00001388

080010ec <SPI_WaitFlagStateUntilTimeout.constprop.6>:
  * @param  State flag state to check
  * @param  Timeout Timeout duration
  * @param  Tickstart tick start value
  * @retval HAL status
  */
static HAL_StatusTypeDef SPI_WaitFlagStateUntilTimeout(SPI_HandleTypeDef *hspi, uint32_t Flag, FlagStatus State,
 80010ec:	b5f8      	push	{r3, r4, r5, r6, r7, lr}
 80010ee:	0004      	movs	r4, r0
 80010f0:	000d      	movs	r5, r1
 80010f2:	0017      	movs	r7, r2
                                                       uint32_t Timeout, uint32_t Tickstart)
{
  while ((__HAL_SPI_GET_FLAG(hspi, Flag) ? SET : RESET) != State)
 80010f4:	2680      	movs	r6, #128	; 0x80
 80010f6:	6823      	ldr	r3, [r4, #0]
 80010f8:	6898      	ldr	r0, [r3, #8]
 80010fa:	4030      	ands	r0, r6
 80010fc:	d031      	beq.n	8001162 <SPI_WaitFlagStateUntilTimeout.constprop.6+0x76>
  {
    if (Timeout != HAL_MAX_DELAY)
 80010fe:	1c6a      	adds	r2, r5, #1
 8001100:	d0fa      	beq.n	80010f8 <SPI_WaitFlagStateUntilTimeout.constprop.6+0xc>
    {
      if (((HAL_GetTick() - Tickstart) >= Timeout) || (Timeout == 0U))
 8001102:	f7ff f9f5 	bl	80004f0 <HAL_GetTick>
 8001106:	1bc0      	subs	r0, r0, r7
 8001108:	4285      	cmp	r5, r0
 800110a:	d8f4      	bhi.n	80010f6 <SPI_WaitFlagStateUntilTimeout.constprop.6+0xa>
        /* Disable the SPI and reset the CRC: the CRC value should be cleared
        on both master and slave sides in order to resynchronize the master
        and slave for their respective CRC calculation */

        /* Disable TXE, RXNE and ERR interrupts for the interrupt process */
        __HAL_SPI_DISABLE_IT(hspi, (SPI_IT_TXE | SPI_IT_RXNE | SPI_IT_ERR));
 800110c:	21e0      	movs	r1, #224	; 0xe0
 800110e:	6823      	ldr	r3, [r4, #0]
 8001110:	685a      	ldr	r2, [r3, #4]
 8001112:	438a      	bics	r2, r1
 8001114:	605a      	str	r2, [r3, #4]

        if ((hspi->Init.Mode == SPI_MODE_MASTER) && ((hspi->Init.Direction == SPI_DIRECTION_1LINE)
 8001116:	2282      	movs	r2, #130	; 0x82
 8001118:	6861      	ldr	r1, [r4, #4]
 800111a:	0052      	lsls	r2, r2, #1
 800111c:	4291      	cmp	r1, r2
 800111e:	d10c      	bne.n	800113a <SPI_WaitFlagStateUntilTimeout.constprop.6+0x4e>
 8001120:	2180      	movs	r1, #128	; 0x80
 8001122:	68a2      	ldr	r2, [r4, #8]
 8001124:	0209      	lsls	r1, r1, #8
 8001126:	428a      	cmp	r2, r1
 8001128:	d003      	beq.n	8001132 <SPI_WaitFlagStateUntilTimeout.constprop.6+0x46>
                                                     || (hspi->Init.Direction == SPI_DIRECTION_2LINES_RXONLY)))
 800112a:	2180      	movs	r1, #128	; 0x80
 800112c:	00c9      	lsls	r1, r1, #3
 800112e:	428a      	cmp	r2, r1
 8001130:	d103      	bne.n	800113a <SPI_WaitFlagStateUntilTimeout.constprop.6+0x4e>
        {
          /* Disable SPI peripheral */
          __HAL_SPI_DISABLE(hspi);
 8001132:	2140      	movs	r1, #64	; 0x40
 8001134:	681a      	ldr	r2, [r3, #0]
 8001136:	438a      	bics	r2, r1
 8001138:	601a      	str	r2, [r3, #0]
        }

        /* Reset CRC Calculation */
        if (hspi->Init.CRCCalculation == SPI_CRCCALCULATION_ENABLE)
 800113a:	2180      	movs	r1, #128	; 0x80
 800113c:	6aa2      	ldr	r2, [r4, #40]	; 0x28
 800113e:	0189      	lsls	r1, r1, #6
 8001140:	428a      	cmp	r2, r1
 8001142:	d106      	bne.n	8001152 <SPI_WaitFlagStateUntilTimeout.constprop.6+0x66>
        {
          SPI_RESET_CRC(hspi);
 8001144:	6819      	ldr	r1, [r3, #0]
 8001146:	4807      	ldr	r0, [pc, #28]	; (8001164 <SPI_WaitFlagStateUntilTimeout.constprop.6+0x78>)
 8001148:	4001      	ands	r1, r0
 800114a:	6019      	str	r1, [r3, #0]
 800114c:	6819      	ldr	r1, [r3, #0]
 800114e:	430a      	orrs	r2, r1
 8001150:	601a      	str	r2, [r3, #0]
        }

        hspi->State = HAL_SPI_STATE_READY;
 8001152:	0023      	movs	r3, r4
 8001154:	2201      	movs	r2, #1
 8001156:	3351      	adds	r3, #81	; 0x51
 8001158:	701a      	strb	r2, [r3, #0]

        /* Process Unlocked */
        __HAL_UNLOCK(hspi);
 800115a:	2300      	movs	r3, #0
 800115c:	2003      	movs	r0, #3
 800115e:	3450      	adds	r4, #80	; 0x50
 8001160:	7023      	strb	r3, [r4, #0]
      }
    }
  }

  return HAL_OK;
}
 8001162:	bdf8      	pop	{r3, r4, r5, r6, r7, pc}
 8001164:	ffffdfff 	.word	0xffffdfff

08001168 <SPI_EndRxTxTransaction>:
  * @param  Timeout Timeout duration
  * @param  Tickstart tick start value
  * @retval HAL status
  */
static HAL_StatusTypeDef SPI_EndRxTxTransaction(SPI_HandleTypeDef *hspi, uint32_t Timeout, uint32_t Tickstart)
{
 8001168:	b510      	push	{r4, lr}
 800116a:	0004      	movs	r4, r0
  /* Control the BSY flag */
  if (SPI_WaitFlagStateUntilTimeout(hspi, SPI_FLAG_BSY, RESET, Timeout, Tickstart) != HAL_OK)
 800116c:	f7ff ffbe 	bl	80010ec <SPI_WaitFlagStateUntilTimeout.constprop.6>
 8001170:	2800      	cmp	r0, #0
 8001172:	d004      	beq.n	800117e <SPI_EndRxTxTransaction+0x16>
  {
    SET_BIT(hspi->ErrorCode, HAL_SPI_ERROR_FLAG);
 8001174:	2320      	movs	r3, #32
    return HAL_TIMEOUT;
 8001176:	2003      	movs	r0, #3
    SET_BIT(hspi->ErrorCode, HAL_SPI_ERROR_FLAG);
 8001178:	6d62      	ldr	r2, [r4, #84]	; 0x54
 800117a:	4313      	orrs	r3, r2
 800117c:	6563      	str	r3, [r4, #84]	; 0x54
  }
  return HAL_OK;
}
 800117e:	bd10      	pop	{r4, pc}

08001180 <HAL_SPI_MspInit>:
 8001180:	4770      	bx	lr
	...

08001184 <HAL_SPI_Init>:
{
 8001184:	b570      	push	{r4, r5, r6, lr}
 8001186:	0004      	movs	r4, r0
    return HAL_ERROR;
 8001188:	2001      	movs	r0, #1
  if (hspi == NULL)
 800118a:	2c00      	cmp	r4, #0
 800118c:	d037      	beq.n	80011fe <HAL_SPI_Init+0x7a>
  hspi->Init.CRCCalculation = SPI_CRCCALCULATION_DISABLE;
 800118e:	2300      	movs	r3, #0
  if (hspi->State == HAL_SPI_STATE_RESET)
 8001190:	0025      	movs	r5, r4
  hspi->Init.CRCCalculation = SPI_CRCCALCULATION_DISABLE;
 8001192:	62a3      	str	r3, [r4, #40]	; 0x28
  if (hspi->State == HAL_SPI_STATE_RESET)
 8001194:	3551      	adds	r5, #81	; 0x51
 8001196:	782b      	ldrb	r3, [r5, #0]
 8001198:	b2db      	uxtb	r3, r3
 800119a:	2b00      	cmp	r3, #0
 800119c:	d105      	bne.n	80011aa <HAL_SPI_Init+0x26>
    hspi->Lock = HAL_UNLOCKED;
 800119e:	0022      	movs	r2, r4
 80011a0:	3250      	adds	r2, #80	; 0x50
 80011a2:	7013      	strb	r3, [r2, #0]
    HAL_SPI_MspInit(hspi);
 80011a4:	0020      	movs	r0, r4
 80011a6:	f7ff ffeb 	bl	8001180 <HAL_SPI_MspInit>
  hspi->State = HAL_SPI_STATE_BUSY;
 80011aa:	2302      	movs	r3, #2
  __HAL_SPI_DISABLE(hspi);
 80011ac:	2240      	movs	r2, #64	; 0x40
 80011ae:	6821      	ldr	r1, [r4, #0]
  hspi->State = HAL_SPI_STATE_BUSY;
 80011b0:	702b      	strb	r3, [r5, #0]
  __HAL_SPI_DISABLE(hspi);
 80011b2:	680b      	ldr	r3, [r1, #0]
  WRITE_REG(hspi->Instance->CR1, (hspi->Init.Mode | hspi->Init.Direction | hspi->Init.DataSize |
 80011b4:	68a0      	ldr	r0, [r4, #8]
  __HAL_SPI_DISABLE(hspi);
 80011b6:	4393      	bics	r3, r2
 80011b8:	600b      	str	r3, [r1, #0]
  WRITE_REG(hspi->Instance->CR1, (hspi->Init.Mode | hspi->Init.Direction | hspi->Init.DataSize |
 80011ba:	6863      	ldr	r3, [r4, #4]
 80011bc:	69a2      	ldr	r2, [r4, #24]
 80011be:	4303      	orrs	r3, r0
 80011c0:	68e0      	ldr	r0, [r4, #12]
 80011c2:	4303      	orrs	r3, r0
 80011c4:	6920      	ldr	r0, [r4, #16]
 80011c6:	4303      	orrs	r3, r0
 80011c8:	6960      	ldr	r0, [r4, #20]
 80011ca:	4303      	orrs	r3, r0
 80011cc:	69e0      	ldr	r0, [r4, #28]
 80011ce:	4303      	orrs	r3, r0
 80011d0:	6a20      	ldr	r0, [r4, #32]
 80011d2:	4303      	orrs	r3, r0
 80011d4:	6aa0      	ldr	r0, [r4, #40]	; 0x28
 80011d6:	4303      	orrs	r3, r0
 80011d8:	2080      	movs	r0, #128	; 0x80
 80011da:	0080      	lsls	r0, r0, #2
 80011dc:	4010      	ands	r0, r2
 80011de:	4303      	orrs	r3, r0
 80011e0:	600b      	str	r3, [r1, #0]
  WRITE_REG(hspi->Instance->CR2, (((hspi->Init.NSS >> 16U) & SPI_CR2_SSOE) | hspi->Init.TIMode));
 80011e2:	2304      	movs	r3, #4
 80011e4:	0c12      	lsrs	r2, r2, #16
 80011e6:	401a      	ands	r2, r3
 80011e8:	6a63      	ldr	r3, [r4, #36]	; 0x24
  hspi->ErrorCode = HAL_SPI_ERROR_NONE;
 80011ea:	2000      	movs	r0, #0
  WRITE_REG(hspi->Instance->CR2, (((hspi->Init.NSS >> 16U) & SPI_CR2_SSOE) | hspi->Init.TIMode));
 80011ec:	431a      	orrs	r2, r3
 80011ee:	604a      	str	r2, [r1, #4]
  CLEAR_BIT(hspi->Instance->I2SCFGR, SPI_I2SCFGR_I2SMOD);
 80011f0:	69cb      	ldr	r3, [r1, #28]
 80011f2:	4a03      	ldr	r2, [pc, #12]	; (8001200 <HAL_SPI_Init+0x7c>)
 80011f4:	4013      	ands	r3, r2
 80011f6:	61cb      	str	r3, [r1, #28]
  hspi->State     = HAL_SPI_STATE_READY;
 80011f8:	2301      	movs	r3, #1
  hspi->ErrorCode = HAL_SPI_ERROR_NONE;
 80011fa:	6560      	str	r0, [r4, #84]	; 0x54
  hspi->State     = HAL_SPI_STATE_READY;
 80011fc:	702b      	strb	r3, [r5, #0]
}
 80011fe:	bd70      	pop	{r4, r5, r6, pc}
 8001200:	fffff7ff 	.word	0xfffff7ff

08001204 <HAL_SPI_TransmitReceive>:
{
 8001204:	b5f0      	push	{r4, r5, r6, r7, lr}
 8001206:	001f      	movs	r7, r3
  __HAL_LOCK(hspi);
 8001208:	0003      	movs	r3, r0
{
 800120a:	b085      	sub	sp, #20
 800120c:	9201      	str	r2, [sp, #4]
  __HAL_LOCK(hspi);
 800120e:	3350      	adds	r3, #80	; 0x50
 8001210:	781a      	ldrb	r2, [r3, #0]
{
 8001212:	0004      	movs	r4, r0
 8001214:	000e      	movs	r6, r1
  __HAL_LOCK(hspi);
 8001216:	2502      	movs	r5, #2
 8001218:	2a01      	cmp	r2, #1
 800121a:	d100      	bne.n	800121e <HAL_SPI_TransmitReceive+0x1a>
 800121c:	e09b      	b.n	8001356 <HAL_SPI_TransmitReceive+0x152>
 800121e:	2201      	movs	r2, #1
 8001220:	701a      	strb	r2, [r3, #0]
  tickstart = HAL_GetTick();
 8001222:	f7ff f965 	bl	80004f0 <HAL_GetTick>
  tmp_state           = hspi->State;
 8001226:	0023      	movs	r3, r4
  tickstart = HAL_GetTick();
 8001228:	9000      	str	r0, [sp, #0]
  tmp_state           = hspi->State;
 800122a:	3351      	adds	r3, #81	; 0x51
 800122c:	781b      	ldrb	r3, [r3, #0]
  tmp_mode            = hspi->Init.Mode;
 800122e:	6861      	ldr	r1, [r4, #4]
  tmp_state           = hspi->State;
 8001230:	b2db      	uxtb	r3, r3
  if (!((tmp_state == HAL_SPI_STATE_READY) || \
 8001232:	2b01      	cmp	r3, #1
 8001234:	d00b      	beq.n	800124e <HAL_SPI_TransmitReceive+0x4a>
 8001236:	2282      	movs	r2, #130	; 0x82
 8001238:	0052      	lsls	r2, r2, #1
 800123a:	4291      	cmp	r1, r2
 800123c:	d000      	beq.n	8001240 <HAL_SPI_TransmitReceive+0x3c>
 800123e:	e083      	b.n	8001348 <HAL_SPI_TransmitReceive+0x144>
        ((tmp_mode == SPI_MODE_MASTER) && (hspi->Init.Direction == SPI_DIRECTION_2LINES) && (tmp_state == HAL_SPI_STATE_BUSY_RX))))
 8001240:	68a2      	ldr	r2, [r4, #8]
 8001242:	2a00      	cmp	r2, #0
 8001244:	d000      	beq.n	8001248 <HAL_SPI_TransmitReceive+0x44>
 8001246:	e07f      	b.n	8001348 <HAL_SPI_TransmitReceive+0x144>
 8001248:	2b04      	cmp	r3, #4
 800124a:	d000      	beq.n	800124e <HAL_SPI_TransmitReceive+0x4a>
 800124c:	e07c      	b.n	8001348 <HAL_SPI_TransmitReceive+0x144>
    errorcode = HAL_ERROR;
 800124e:	2501      	movs	r5, #1
  if ((pTxData == NULL) || (pRxData == NULL) || (Size == 0U))
 8001250:	2e00      	cmp	r6, #0
 8001252:	d100      	bne.n	8001256 <HAL_SPI_TransmitReceive+0x52>
 8001254:	e078      	b.n	8001348 <HAL_SPI_TransmitReceive+0x144>
 8001256:	9b01      	ldr	r3, [sp, #4]
 8001258:	2b00      	cmp	r3, #0
 800125a:	d075      	beq.n	8001348 <HAL_SPI_TransmitReceive+0x144>
 800125c:	2f00      	cmp	r7, #0
 800125e:	d073      	beq.n	8001348 <HAL_SPI_TransmitReceive+0x144>
  if (hspi->State != HAL_SPI_STATE_BUSY_RX)
 8001260:	0023      	movs	r3, r4
 8001262:	3351      	adds	r3, #81	; 0x51
 8001264:	781a      	ldrb	r2, [r3, #0]
 8001266:	2a04      	cmp	r2, #4
 8001268:	d001      	beq.n	800126e <HAL_SPI_TransmitReceive+0x6a>
    hspi->State = HAL_SPI_STATE_BUSY_TX_RX;
 800126a:	2205      	movs	r2, #5
 800126c:	701a      	strb	r2, [r3, #0]
  hspi->ErrorCode   = HAL_SPI_ERROR_NONE;
 800126e:	2300      	movs	r3, #0
  hspi->pRxBuffPtr  = (uint8_t *)pRxData;
 8001270:	9a01      	ldr	r2, [sp, #4]
  hspi->ErrorCode   = HAL_SPI_ERROR_NONE;
 8001272:	6563      	str	r3, [r4, #84]	; 0x54
  hspi->pRxBuffPtr  = (uint8_t *)pRxData;
 8001274:	63a2      	str	r2, [r4, #56]	; 0x38
  if ((hspi->Instance->CR1 & SPI_CR1_SPE) != SPI_CR1_SPE)
 8001276:	2240      	movs	r2, #64	; 0x40
  hspi->RxISR       = NULL;
 8001278:	6423      	str	r3, [r4, #64]	; 0x40
  hspi->TxISR       = NULL;
 800127a:	6463      	str	r3, [r4, #68]	; 0x44
  if ((hspi->Instance->CR1 & SPI_CR1_SPE) != SPI_CR1_SPE)
 800127c:	6823      	ldr	r3, [r4, #0]
  hspi->RxXferCount = Size;
 800127e:	87e7      	strh	r7, [r4, #62]	; 0x3e
  hspi->TxXferCount = Size;
 8001280:	86e7      	strh	r7, [r4, #54]	; 0x36
  if ((hspi->Instance->CR1 & SPI_CR1_SPE) != SPI_CR1_SPE)
 8001282:	6818      	ldr	r0, [r3, #0]
  hspi->RxXferSize  = Size;
 8001284:	87a7      	strh	r7, [r4, #60]	; 0x3c
  hspi->pTxBuffPtr  = (uint8_t *)pTxData;
 8001286:	6326      	str	r6, [r4, #48]	; 0x30
  hspi->TxXferSize  = Size;
 8001288:	86a7      	strh	r7, [r4, #52]	; 0x34
  if ((hspi->Instance->CR1 & SPI_CR1_SPE) != SPI_CR1_SPE)
 800128a:	4210      	tst	r0, r2
 800128c:	d102      	bne.n	8001294 <HAL_SPI_TransmitReceive+0x90>
    __HAL_SPI_ENABLE(hspi);
 800128e:	6818      	ldr	r0, [r3, #0]
 8001290:	4302      	orrs	r2, r0
 8001292:	601a      	str	r2, [r3, #0]
  if (hspi->Init.DataSize == SPI_DATASIZE_16BIT)
 8001294:	2280      	movs	r2, #128	; 0x80
 8001296:	68e0      	ldr	r0, [r4, #12]
 8001298:	0112      	lsls	r2, r2, #4
 800129a:	4290      	cmp	r0, r2
 800129c:	d15e      	bne.n	800135c <HAL_SPI_TransmitReceive+0x158>
    if ((hspi->Init.Mode == SPI_MODE_SLAVE) || (initial_TxXferCount == 0x01U))
 800129e:	2900      	cmp	r1, #0
 80012a0:	d001      	beq.n	80012a6 <HAL_SPI_TransmitReceive+0xa2>
 80012a2:	2f01      	cmp	r7, #1
 80012a4:	d107      	bne.n	80012b6 <HAL_SPI_TransmitReceive+0xb2>
      hspi->Instance->DR = *((uint16_t *)hspi->pTxBuffPtr);
 80012a6:	8832      	ldrh	r2, [r6, #0]
      hspi->pTxBuffPtr += sizeof(uint16_t);
 80012a8:	3602      	adds	r6, #2
      hspi->Instance->DR = *((uint16_t *)hspi->pTxBuffPtr);
 80012aa:	60da      	str	r2, [r3, #12]
      hspi->TxXferCount--;
 80012ac:	8ee3      	ldrh	r3, [r4, #54]	; 0x36
      hspi->pTxBuffPtr += sizeof(uint16_t);
 80012ae:	6326      	str	r6, [r4, #48]	; 0x30
      hspi->TxXferCount--;
 80012b0:	3b01      	subs	r3, #1
 80012b2:	b29b      	uxth	r3, r3
 80012b4:	86e3      	strh	r3, [r4, #54]	; 0x36
        txallowed = 1U;
 80012b6:	2501      	movs	r5, #1
      if ((__HAL_SPI_GET_FLAG(hspi, SPI_FLAG_TXE)) && (hspi->TxXferCount > 0U) && (txallowed == 1U))
 80012b8:	2702      	movs	r7, #2
      if ((__HAL_SPI_GET_FLAG(hspi, SPI_FLAG_RXNE)) && (hspi->RxXferCount > 0U))
 80012ba:	002e      	movs	r6, r5
    while ((hspi->TxXferCount > 0U) || (hspi->RxXferCount > 0U))
 80012bc:	8ee3      	ldrh	r3, [r4, #54]	; 0x36
 80012be:	2b00      	cmp	r3, #0
 80012c0:	d115      	bne.n	80012ee <HAL_SPI_TransmitReceive+0xea>
 80012c2:	8fe3      	ldrh	r3, [r4, #62]	; 0x3e
 80012c4:	2b00      	cmp	r3, #0
 80012c6:	d112      	bne.n	80012ee <HAL_SPI_TransmitReceive+0xea>
  if (SPI_EndRxTxTransaction(hspi, Timeout, tickstart) != HAL_OK)
 80012c8:	9a00      	ldr	r2, [sp, #0]
 80012ca:	990a      	ldr	r1, [sp, #40]	; 0x28
 80012cc:	0020      	movs	r0, r4
 80012ce:	f7ff ff4b 	bl	8001168 <SPI_EndRxTxTransaction>
 80012d2:	1e05      	subs	r5, r0, #0
 80012d4:	d000      	beq.n	80012d8 <HAL_SPI_TransmitReceive+0xd4>
 80012d6:	e087      	b.n	80013e8 <HAL_SPI_TransmitReceive+0x1e4>
  if (hspi->Init.Direction == SPI_DIRECTION_2LINES)
 80012d8:	68a3      	ldr	r3, [r4, #8]
 80012da:	2b00      	cmp	r3, #0
 80012dc:	d134      	bne.n	8001348 <HAL_SPI_TransmitReceive+0x144>
    __HAL_SPI_CLEAR_OVRFLAG(hspi);
 80012de:	6823      	ldr	r3, [r4, #0]
 80012e0:	9003      	str	r0, [sp, #12]
 80012e2:	68da      	ldr	r2, [r3, #12]
 80012e4:	9203      	str	r2, [sp, #12]
 80012e6:	689b      	ldr	r3, [r3, #8]
 80012e8:	9303      	str	r3, [sp, #12]
 80012ea:	9b03      	ldr	r3, [sp, #12]
 80012ec:	e02c      	b.n	8001348 <HAL_SPI_TransmitReceive+0x144>
      if ((__HAL_SPI_GET_FLAG(hspi, SPI_FLAG_TXE)) && (hspi->TxXferCount > 0U) && (txallowed == 1U))
 80012ee:	6822      	ldr	r2, [r4, #0]
 80012f0:	6893      	ldr	r3, [r2, #8]
 80012f2:	423b      	tst	r3, r7
 80012f4:	d00e      	beq.n	8001314 <HAL_SPI_TransmitReceive+0x110>
 80012f6:	8ee3      	ldrh	r3, [r4, #54]	; 0x36
 80012f8:	2b00      	cmp	r3, #0
 80012fa:	d00b      	beq.n	8001314 <HAL_SPI_TransmitReceive+0x110>
 80012fc:	2d01      	cmp	r5, #1
 80012fe:	d109      	bne.n	8001314 <HAL_SPI_TransmitReceive+0x110>
        txallowed = 0U;
 8001300:	2500      	movs	r5, #0
        hspi->Instance->DR = *((uint16_t *)hspi->pTxBuffPtr);
 8001302:	6b23      	ldr	r3, [r4, #48]	; 0x30
 8001304:	8819      	ldrh	r1, [r3, #0]
        hspi->pTxBuffPtr += sizeof(uint16_t);
 8001306:	3302      	adds	r3, #2
        hspi->Instance->DR = *((uint16_t *)hspi->pTxBuffPtr);
 8001308:	60d1      	str	r1, [r2, #12]
        hspi->pTxBuffPtr += sizeof(uint16_t);
 800130a:	6323      	str	r3, [r4, #48]	; 0x30
        hspi->TxXferCount--;
 800130c:	8ee3      	ldrh	r3, [r4, #54]	; 0x36
 800130e:	3b01      	subs	r3, #1
 8001310:	b29b      	uxth	r3, r3
 8001312:	86e3      	strh	r3, [r4, #54]	; 0x36
      if ((__HAL_SPI_GET_FLAG(hspi, SPI_FLAG_RXNE)) && (hspi->RxXferCount > 0U))
 8001314:	6893      	ldr	r3, [r2, #8]
 8001316:	4233      	tst	r3, r6
 8001318:	d00c      	beq.n	8001334 <HAL_SPI_TransmitReceive+0x130>
 800131a:	8fe3      	ldrh	r3, [r4, #62]	; 0x3e
 800131c:	2b00      	cmp	r3, #0
 800131e:	d009      	beq.n	8001334 <HAL_SPI_TransmitReceive+0x130>
        txallowed = 1U;
 8001320:	0035      	movs	r5, r6
        *((uint16_t *)hspi->pRxBuffPtr) = (uint16_t)hspi->Instance->DR;
 8001322:	68d2      	ldr	r2, [r2, #12]
 8001324:	6ba3      	ldr	r3, [r4, #56]	; 0x38
 8001326:	801a      	strh	r2, [r3, #0]
        hspi->pRxBuffPtr += sizeof(uint16_t);
 8001328:	3302      	adds	r3, #2
 800132a:	63a3      	str	r3, [r4, #56]	; 0x38
        hspi->RxXferCount--;
 800132c:	8fe3      	ldrh	r3, [r4, #62]	; 0x3e
 800132e:	3b01      	subs	r3, #1
 8001330:	b29b      	uxth	r3, r3
 8001332:	87e3      	strh	r3, [r4, #62]	; 0x3e
      if (((HAL_GetTick() - tickstart) >=  Timeout) && (Timeout != HAL_MAX_DELAY))
 8001334:	f7ff f8dc 	bl	80004f0 <HAL_GetTick>
 8001338:	9b00      	ldr	r3, [sp, #0]
 800133a:	1ac0      	subs	r0, r0, r3
 800133c:	9b0a      	ldr	r3, [sp, #40]	; 0x28
 800133e:	4283      	cmp	r3, r0
 8001340:	d8bc      	bhi.n	80012bc <HAL_SPI_TransmitReceive+0xb8>
 8001342:	3301      	adds	r3, #1
 8001344:	d0ba      	beq.n	80012bc <HAL_SPI_TransmitReceive+0xb8>
        errorcode = HAL_TIMEOUT;
 8001346:	2503      	movs	r5, #3
  hspi->State = HAL_SPI_STATE_READY;
 8001348:	0023      	movs	r3, r4
 800134a:	2201      	movs	r2, #1
 800134c:	3351      	adds	r3, #81	; 0x51
 800134e:	701a      	strb	r2, [r3, #0]
  __HAL_UNLOCK(hspi);
 8001350:	2300      	movs	r3, #0
 8001352:	3450      	adds	r4, #80	; 0x50
 8001354:	7023      	strb	r3, [r4, #0]
}
 8001356:	0028      	movs	r0, r5
 8001358:	b005      	add	sp, #20
 800135a:	bdf0      	pop	{r4, r5, r6, r7, pc}
    if ((hspi->Init.Mode == SPI_MODE_SLAVE) || (initial_TxXferCount == 0x01U))
 800135c:	2900      	cmp	r1, #0
 800135e:	d001      	beq.n	8001364 <HAL_SPI_TransmitReceive+0x160>
 8001360:	2f01      	cmp	r7, #1
 8001362:	d108      	bne.n	8001376 <HAL_SPI_TransmitReceive+0x172>
      *((__IO uint8_t *)&hspi->Instance->DR) = (*hspi->pTxBuffPtr);
 8001364:	7832      	ldrb	r2, [r6, #0]
 8001366:	731a      	strb	r2, [r3, #12]
      hspi->pTxBuffPtr += sizeof(uint8_t);
 8001368:	6b23      	ldr	r3, [r4, #48]	; 0x30
 800136a:	3301      	adds	r3, #1
 800136c:	6323      	str	r3, [r4, #48]	; 0x30
      hspi->TxXferCount--;
 800136e:	8ee3      	ldrh	r3, [r4, #54]	; 0x36
 8001370:	3b01      	subs	r3, #1
 8001372:	b29b      	uxth	r3, r3
 8001374:	86e3      	strh	r3, [r4, #54]	; 0x36
        txallowed = 1U;
 8001376:	2501      	movs	r5, #1
      if ((__HAL_SPI_GET_FLAG(hspi, SPI_FLAG_TXE)) && (hspi->TxXferCount > 0U) && (txallowed == 1U))
 8001378:	2702      	movs	r7, #2
      if ((__HAL_SPI_GET_FLAG(hspi, SPI_FLAG_RXNE)) && (hspi->RxXferCount > 0U))
 800137a:	002e      	movs	r6, r5
    while ((hspi->TxXferCount > 0U) || (hspi->RxXferCount > 0U))
 800137c:	8ee3      	ldrh	r3, [r4, #54]	; 0x36
 800137e:	2b00      	cmp	r3, #0
 8001380:	d102      	bne.n	8001388 <HAL_SPI_TransmitReceive+0x184>
 8001382:	8fe3      	ldrh	r3, [r4, #62]	; 0x3e
 8001384:	2b00      	cmp	r3, #0
 8001386:	d09f      	beq.n	80012c8 <HAL_SPI_TransmitReceive+0xc4>
      if ((__HAL_SPI_GET_FLAG(hspi, SPI_FLAG_TXE)) && (hspi->TxXferCount > 0U) && (txallowed == 1U))
 8001388:	6823      	ldr	r3, [r4, #0]
 800138a:	689a      	ldr	r2, [r3, #8]
 800138c:	423a      	tst	r2, r7
 800138e:	d00f      	beq.n	80013b0 <HAL_SPI_TransmitReceive+0x1ac>
 8001390:	8ee2      	ldrh	r2, [r4, #54]	; 0x36
 8001392:	2a00      	cmp	r2, #0
 8001394:	d00c      	beq.n	80013b0 <HAL_SPI_TransmitReceive+0x1ac>
 8001396:	2d01      	cmp	r5, #1
 8001398:	d10a      	bne.n	80013b0 <HAL_SPI_TransmitReceive+0x1ac>
        txallowed = 0U;
 800139a:	2500      	movs	r5, #0
        *(__IO uint8_t *)&hspi->Instance->DR = (*hspi->pTxBuffPtr);
 800139c:	6b22      	ldr	r2, [r4, #48]	; 0x30
 800139e:	7812      	ldrb	r2, [r2, #0]
 80013a0:	731a      	strb	r2, [r3, #12]
        hspi->pTxBuffPtr++;
 80013a2:	6b23      	ldr	r3, [r4, #48]	; 0x30
 80013a4:	3301      	adds	r3, #1
 80013a6:	6323      	str	r3, [r4, #48]	; 0x30
        hspi->TxXferCount--;
 80013a8:	8ee3      	ldrh	r3, [r4, #54]	; 0x36
 80013aa:	3b01      	subs	r3, #1
 80013ac:	b29b      	uxth	r3, r3
 80013ae:	86e3      	strh	r3, [r4, #54]	; 0x36
      if ((__HAL_SPI_GET_FLAG(hspi, SPI_FLAG_RXNE)) && (hspi->RxXferCount > 0U))
 80013b0:	6823      	ldr	r3, [r4, #0]
 80013b2:	689a      	ldr	r2, [r3, #8]
 80013b4:	4232      	tst	r2, r6
 80013b6:	d00d      	beq.n	80013d4 <HAL_SPI_TransmitReceive+0x1d0>
 80013b8:	8fe2      	ldrh	r2, [r4, #62]	; 0x3e
 80013ba:	2a00      	cmp	r2, #0
 80013bc:	d00a      	beq.n	80013d4 <HAL_SPI_TransmitReceive+0x1d0>
        txallowed = 1U;
 80013be:	0035      	movs	r5, r6
        (*(uint8_t *)hspi->pRxBuffPtr) = hspi->Instance->DR;
 80013c0:	68db      	ldr	r3, [r3, #12]
 80013c2:	6ba2      	ldr	r2, [r4, #56]	; 0x38
 80013c4:	7013      	strb	r3, [r2, #0]
        hspi->pRxBuffPtr++;
 80013c6:	6ba3      	ldr	r3, [r4, #56]	; 0x38
 80013c8:	3301      	adds	r3, #1
 80013ca:	63a3      	str	r3, [r4, #56]	; 0x38
        hspi->RxXferCount--;
 80013cc:	8fe3      	ldrh	r3, [r4, #62]	; 0x3e
 80013ce:	3b01      	subs	r3, #1
 80013d0:	b29b      	uxth	r3, r3
 80013d2:	87e3      	strh	r3, [r4, #62]	; 0x3e
      if ((((HAL_GetTick() - tickstart) >=  Timeout) && ((Timeout != HAL_MAX_DELAY))) || (Timeout == 0U))
 80013d4:	f7ff f88c 	bl	80004f0 <HAL_GetTick>
 80013d8:	9b00      	ldr	r3, [sp, #0]
 80013da:	1ac0      	subs	r0, r0, r3
 80013dc:	9b0a      	ldr	r3, [sp, #40]	; 0x28
 80013de:	4283      	cmp	r3, r0
 80013e0:	d8cc      	bhi.n	800137c <HAL_SPI_TransmitReceive+0x178>
 80013e2:	3301      	adds	r3, #1
 80013e4:	d0ca      	beq.n	800137c <HAL_SPI_TransmitReceive+0x178>
 80013e6:	e7ae      	b.n	8001346 <HAL_SPI_TransmitReceive+0x142>
    hspi->ErrorCode = HAL_SPI_ERROR_FLAG;
 80013e8:	2320      	movs	r3, #32
    errorcode = HAL_ERROR;
 80013ea:	2501      	movs	r5, #1
    hspi->ErrorCode = HAL_SPI_ERROR_FLAG;
 80013ec:	6563      	str	r3, [r4, #84]	; 0x54
 80013ee:	e7ab      	b.n	8001348 <HAL_SPI_TransmitReceive+0x144>

080013f0 <HAL_SPI_GetState>:
  return hspi->State;
 80013f0:	3051      	adds	r0, #81	; 0x51
 80013f2:	7800      	ldrb	r0, [r0, #0]
 80013f4:	b2c0      	uxtb	r0, r0
}
 80013f6:	4770      	bx	lr

080013f8 <aci_gap_init_IDB05A1>:

#define MIN(a,b)            ((a) < (b) )? (a) : (b)
#define MAX(a,b)            ((a) > (b) )? (a) : (b)

tBleStatus aci_gap_init_IDB05A1(uint8_t role, uint8_t privacy_enabled, uint8_t device_name_char_len, uint16_t* service_handle, uint16_t* dev_name_char_handle, uint16_t* appearance_char_handle)
{
 80013f8:	b5f0      	push	{r4, r5, r6, r7, lr}
 
  cp.role = role;
  cp.privacy_enabled = privacy_enabled;
  cp.device_name_char_len = device_name_char_len;
    
  BLUENRG_memset(&resp, 0, sizeof(resp));
 80013fa:	2707      	movs	r7, #7
{
 80013fc:	b08d      	sub	sp, #52	; 0x34
  cp.role = role;
 80013fe:	ae03      	add	r6, sp, #12
  BLUENRG_memset(&resp, 0, sizeof(resp));
 8001400:	ad04      	add	r5, sp, #16
  
  BLUENRG_memset(&rq, 0, sizeof(rq));
 8001402:	ac06      	add	r4, sp, #24
  cp.role = role;
 8001404:	7030      	strb	r0, [r6, #0]
  cp.privacy_enabled = privacy_enabled;
 8001406:	7071      	strb	r1, [r6, #1]
  cp.device_name_char_len = device_name_char_len;
 8001408:	70b2      	strb	r2, [r6, #2]
  BLUENRG_memset(&resp, 0, sizeof(resp));
 800140a:	2100      	movs	r1, #0
 800140c:	003a      	movs	r2, r7
 800140e:	0028      	movs	r0, r5
{
 8001410:	9301      	str	r3, [sp, #4]
  BLUENRG_memset(&resp, 0, sizeof(resp));
 8001412:	f001 fb36 	bl	8002a82 <memset>
  BLUENRG_memset(&rq, 0, sizeof(rq));
 8001416:	2218      	movs	r2, #24
 8001418:	2100      	movs	r1, #0
 800141a:	0020      	movs	r0, r4
 800141c:	f001 fb31 	bl	8002a82 <memset>
  rq.ogf = OGF_VENDOR_CMD;
 8001420:	233f      	movs	r3, #63	; 0x3f
 8001422:	8023      	strh	r3, [r4, #0]
  rq.ocf = OCF_GAP_INIT;
 8001424:	334b      	adds	r3, #75	; 0x4b
 8001426:	8063      	strh	r3, [r4, #2]
  rq.cparam = &cp;
  rq.clen = sizeof(cp);
  rq.rparam = &resp;
  rq.rlen = GAP_INIT_RP_SIZE;
  
  if (hci_send_req(&rq, FALSE) < 0)
 8001428:	2100      	movs	r1, #0
  rq.clen = sizeof(cp);
 800142a:	3b87      	subs	r3, #135	; 0x87
  if (hci_send_req(&rq, FALSE) < 0)
 800142c:	0020      	movs	r0, r4
  rq.cparam = &cp;
 800142e:	60a6      	str	r6, [r4, #8]
  rq.clen = sizeof(cp);
 8001430:	60e3      	str	r3, [r4, #12]
  rq.rparam = &resp;
 8001432:	6125      	str	r5, [r4, #16]
  rq.rlen = GAP_INIT_RP_SIZE;
 8001434:	6167      	str	r7, [r4, #20]
  if (hci_send_req(&rq, FALSE) < 0)
 8001436:	f000 fb3b 	bl	8001ab0 <hci_send_req>
    return BLE_STATUS_TIMEOUT;
 800143a:	22ff      	movs	r2, #255	; 0xff
  if (hci_send_req(&rq, FALSE) < 0)
 800143c:	2800      	cmp	r0, #0
 800143e:	db10      	blt.n	8001462 <aci_gap_init_IDB05A1+0x6a>
  
  if (resp.status) {
 8001440:	782a      	ldrb	r2, [r5, #0]
 8001442:	2a00      	cmp	r2, #0
 8001444:	d10d      	bne.n	8001462 <aci_gap_init_IDB05A1+0x6a>
    return resp.status;
  }
  
  *service_handle = btohs(resp.service_handle);
 8001446:	682b      	ldr	r3, [r5, #0]
 8001448:	9901      	ldr	r1, [sp, #4]
 800144a:	0a1b      	lsrs	r3, r3, #8
 800144c:	800b      	strh	r3, [r1, #0]
  *dev_name_char_handle = btohs(resp.dev_name_char_handle);
 800144e:	792b      	ldrb	r3, [r5, #4]
 8001450:	78e9      	ldrb	r1, [r5, #3]
 8001452:	021b      	lsls	r3, r3, #8
 8001454:	430b      	orrs	r3, r1
 8001456:	9912      	ldr	r1, [sp, #72]	; 0x48
 8001458:	800b      	strh	r3, [r1, #0]
  *appearance_char_handle = btohs(resp.appearance_char_handle);
 800145a:	686b      	ldr	r3, [r5, #4]
 800145c:	9913      	ldr	r1, [sp, #76]	; 0x4c
 800145e:	0a1b      	lsrs	r3, r3, #8
 8001460:	800b      	strh	r3, [r1, #0]
  
  return 0;
}
 8001462:	0010      	movs	r0, r2
 8001464:	b00d      	add	sp, #52	; 0x34
 8001466:	bdf0      	pop	{r4, r5, r6, r7, pc}

08001468 <aci_gap_set_discoverable>:

tBleStatus aci_gap_set_discoverable(uint8_t AdvType, uint16_t AdvIntervMin, uint16_t AdvIntervMax,
                             uint8_t OwnAddrType, uint8_t AdvFilterPolicy, uint8_t LocalNameLen,
                             const char *LocalName, uint8_t ServiceUUIDLen, uint8_t* ServiceUUIDList,
                             uint16_t SlaveConnIntervMin, uint16_t SlaveConnIntervMax)
{
 8001468:	b5f0      	push	{r4, r5, r6, r7, lr}
 800146a:	000e      	movs	r6, r1
 800146c:	b097      	sub	sp, #92	; 0x5c
 800146e:	9301      	str	r3, [sp, #4]
 8001470:	ab1c      	add	r3, sp, #112	; 0x70
 8001472:	781b      	ldrb	r3, [r3, #0]
 8001474:	af03      	add	r7, sp, #12
 8001476:	9302      	str	r3, [sp, #8]
 8001478:	ab1d      	add	r3, sp, #116	; 0x74
 800147a:	781d      	ldrb	r5, [r3, #0]
 800147c:	ab1f      	add	r3, sp, #124	; 0x7c
 800147e:	781c      	ldrb	r4, [r3, #0]
 8001480:	ab02      	add	r3, sp, #8
 8001482:	1d99      	adds	r1, r3, #6
 8001484:	803a      	strh	r2, [r7, #0]
  struct hci_request rq;
  uint8_t status;    
  uint8_t buffer[40];
  uint8_t indx = 0;
  
  if ((LocalNameLen+ServiceUUIDLen+14) > sizeof(buffer))
 8001486:	192a      	adds	r2, r5, r4
{
 8001488:	800e      	strh	r6, [r1, #0]
    return BLE_STATUS_INVALID_PARAMS;
 800148a:	2342      	movs	r3, #66	; 0x42
  if ((LocalNameLen+ServiceUUIDLen+14) > sizeof(buffer))
 800148c:	2a1a      	cmp	r2, #26
 800148e:	dc4f      	bgt.n	8001530 <aci_gap_set_discoverable+0xc8>

  buffer[indx] = AdvType;
 8001490:	ae0c      	add	r6, sp, #48	; 0x30
 8001492:	7030      	strb	r0, [r6, #0]
  indx++;
  
  AdvIntervMin = htobs(AdvIntervMin);
  BLUENRG_memcpy(buffer + indx, &AdvIntervMin, 2);
 8001494:	2029      	movs	r0, #41	; 0x29
 8001496:	ab02      	add	r3, sp, #8
 8001498:	2202      	movs	r2, #2
 800149a:	18c0      	adds	r0, r0, r3
 800149c:	f001 fae8 	bl	8002a70 <memcpy>
  indx +=  2;
    
  AdvIntervMax = htobs(AdvIntervMax);
  BLUENRG_memcpy(buffer + indx, &AdvIntervMax, 2);
 80014a0:	202b      	movs	r0, #43	; 0x2b
 80014a2:	ab02      	add	r3, sp, #8
 80014a4:	0039      	movs	r1, r7
 80014a6:	2202      	movs	r2, #2
 80014a8:	18c0      	adds	r0, r0, r3
 80014aa:	f001 fae1 	bl	8002a70 <memcpy>
  indx +=  2;
    
  buffer[indx] = OwnAddrType;
 80014ae:	466b      	mov	r3, sp
 80014b0:	791b      	ldrb	r3, [r3, #4]
  indx++;
    
  buffer[indx] = LocalNameLen;
  indx++;
    
  BLUENRG_memcpy(buffer + indx, LocalName, LocalNameLen);
 80014b2:	002a      	movs	r2, r5
  buffer[indx] = OwnAddrType;
 80014b4:	7173      	strb	r3, [r6, #5]
  buffer[indx] = AdvFilterPolicy;
 80014b6:	466b      	mov	r3, sp
 80014b8:	7a1b      	ldrb	r3, [r3, #8]
  BLUENRG_memcpy(buffer + indx, LocalName, LocalNameLen);
 80014ba:	991e      	ldr	r1, [sp, #120]	; 0x78
 80014bc:	a80e      	add	r0, sp, #56	; 0x38
  buffer[indx] = AdvFilterPolicy;
 80014be:	71b3      	strb	r3, [r6, #6]
  buffer[indx] = LocalNameLen;
 80014c0:	71f5      	strb	r5, [r6, #7]
  BLUENRG_memcpy(buffer + indx, LocalName, LocalNameLen);
 80014c2:	f001 fad5 	bl	8002a70 <memcpy>
  indx +=  LocalNameLen;
 80014c6:	002b      	movs	r3, r5
  
  buffer[indx] = ServiceUUIDLen;
  indx++;
 80014c8:	3509      	adds	r5, #9
  indx +=  LocalNameLen;
 80014ca:	3308      	adds	r3, #8
  buffer[indx] = ServiceUUIDLen;
 80014cc:	b2db      	uxtb	r3, r3
  indx++;
 80014ce:	b2ed      	uxtb	r5, r5
  buffer[indx] = ServiceUUIDLen;
 80014d0:	54f4      	strb	r4, [r6, r3]

  BLUENRG_memcpy(buffer + indx, ServiceUUIDList, ServiceUUIDLen);
 80014d2:	0022      	movs	r2, r4
  indx +=  ServiceUUIDLen;  
 80014d4:	1964      	adds	r4, r4, r5
 80014d6:	b2e4      	uxtb	r4, r4
  BLUENRG_memcpy(buffer + indx, ServiceUUIDList, ServiceUUIDLen);
 80014d8:	9920      	ldr	r1, [sp, #128]	; 0x80
 80014da:	1970      	adds	r0, r6, r5
 80014dc:	f001 fac8 	bl	8002a70 <memcpy>

  SlaveConnIntervMin = htobs(SlaveConnIntervMin);
  BLUENRG_memcpy(buffer + indx, &SlaveConnIntervMin, 2);
 80014e0:	1930      	adds	r0, r6, r4
 80014e2:	2202      	movs	r2, #2
 80014e4:	a921      	add	r1, sp, #132	; 0x84
 80014e6:	f001 fac3 	bl	8002a70 <memcpy>
  indx +=  2;
 80014ea:	1ca0      	adds	r0, r4, #2
  
  SlaveConnIntervMax = htobs(SlaveConnIntervMax);
  BLUENRG_memcpy(buffer + indx, &SlaveConnIntervMax, 2);
 80014ec:	b2c0      	uxtb	r0, r0
  indx +=  2;    

  BLUENRG_memset(&rq, 0, sizeof(rq));
 80014ee:	af06      	add	r7, sp, #24
  BLUENRG_memcpy(buffer + indx, &SlaveConnIntervMax, 2);
 80014f0:	2202      	movs	r2, #2
 80014f2:	a922      	add	r1, sp, #136	; 0x88
 80014f4:	1830      	adds	r0, r6, r0
 80014f6:	f001 fabb 	bl	8002a70 <memcpy>
  BLUENRG_memset(&rq, 0, sizeof(rq));
 80014fa:	2218      	movs	r2, #24
 80014fc:	2100      	movs	r1, #0
 80014fe:	0038      	movs	r0, r7
 8001500:	f001 fabf 	bl	8002a82 <memset>
  indx +=  2;    
 8001504:	3404      	adds	r4, #4
  rq.ogf = OGF_VENDOR_CMD;
 8001506:	233f      	movs	r3, #63	; 0x3f
  rq.ocf = OCF_GAP_SET_DISCOVERABLE;
  rq.cparam = (void *)buffer;
  rq.clen = indx;
 8001508:	b2e4      	uxtb	r4, r4
 800150a:	60fc      	str	r4, [r7, #12]
  rq.rparam = &status;
 800150c:	240f      	movs	r4, #15
  rq.ogf = OGF_VENDOR_CMD;
 800150e:	803b      	strh	r3, [r7, #0]
  rq.ocf = OCF_GAP_SET_DISCOVERABLE;
 8001510:	3344      	adds	r3, #68	; 0x44
 8001512:	807b      	strh	r3, [r7, #2]
  rq.rparam = &status;
 8001514:	ab02      	add	r3, sp, #8
 8001516:	18e4      	adds	r4, r4, r3
  rq.rlen = 1;
 8001518:	2301      	movs	r3, #1

  if (hci_send_req(&rq, FALSE) < 0)
 800151a:	2100      	movs	r1, #0
 800151c:	0038      	movs	r0, r7
  rq.rlen = 1;
 800151e:	617b      	str	r3, [r7, #20]
  rq.cparam = (void *)buffer;
 8001520:	60be      	str	r6, [r7, #8]
  rq.rparam = &status;
 8001522:	613c      	str	r4, [r7, #16]
  if (hci_send_req(&rq, FALSE) < 0)
 8001524:	f000 fac4 	bl	8001ab0 <hci_send_req>
    return BLE_STATUS_TIMEOUT;
 8001528:	23ff      	movs	r3, #255	; 0xff
  if (hci_send_req(&rq, FALSE) < 0)
 800152a:	2800      	cmp	r0, #0
 800152c:	db00      	blt.n	8001530 <aci_gap_set_discoverable+0xc8>

  if (status) {
 800152e:	7823      	ldrb	r3, [r4, #0]
    return status;
  }

  return 0;
}
 8001530:	0018      	movs	r0, r3
 8001532:	b017      	add	sp, #92	; 0x5c
 8001534:	bdf0      	pop	{r4, r5, r6, r7, pc}

08001536 <aci_gap_set_auth_requirement>:
                                        uint8_t min_encryption_key_size,
                                        uint8_t max_encryption_key_size,
                                        uint8_t use_fixed_pin,
                                        uint32_t fixed_pin,
                                        uint8_t bonding_mode)
{
 8001536:	468c      	mov	ip, r1
 8001538:	b5f0      	push	{r4, r5, r6, r7, lr}
 800153a:	b091      	sub	sp, #68	; 0x44
 800153c:	001f      	movs	r7, r3
 800153e:	ab16      	add	r3, sp, #88	; 0x58
 8001540:	781e      	ldrb	r6, [r3, #0]
 8001542:	ab17      	add	r3, sp, #92	; 0x5c
 8001544:	781d      	ldrb	r5, [r3, #0]
 8001546:	ab19      	add	r3, sp, #100	; 0x64
 8001548:	781b      	ldrb	r3, [r3, #0]
  struct hci_request rq;
  gap_set_auth_requirement_cp cp;    
  uint8_t status;
    
  cp.mitm_mode = mitm_mode;
 800154a:	ac09      	add	r4, sp, #36	; 0x24
{
 800154c:	9301      	str	r3, [sp, #4]
  cp.oob_enable = oob_enable;
 800154e:	4663      	mov	r3, ip
  cp.mitm_mode = mitm_mode;
 8001550:	7020      	strb	r0, [r4, #0]
  BLUENRG_memcpy(cp.oob_data, oob_data, 16);
 8001552:	201e      	movs	r0, #30
  cp.oob_enable = oob_enable;
 8001554:	7063      	strb	r3, [r4, #1]
  BLUENRG_memcpy(cp.oob_data, oob_data, 16);
 8001556:	ab02      	add	r3, sp, #8
{
 8001558:	0011      	movs	r1, r2
  BLUENRG_memcpy(cp.oob_data, oob_data, 16);
 800155a:	18c0      	adds	r0, r0, r3
 800155c:	2210      	movs	r2, #16
 800155e:	f001 fa87 	bl	8002a70 <memcpy>
  cp.min_encryption_key_size = min_encryption_key_size;
  cp.max_encryption_key_size = max_encryption_key_size;
  cp.use_fixed_pin = use_fixed_pin;
  cp.fixed_pin = htobl(fixed_pin);
 8001562:	2158      	movs	r1, #88	; 0x58
 8001564:	2231      	movs	r2, #49	; 0x31
 8001566:	ab02      	add	r3, sp, #8
 8001568:	18d2      	adds	r2, r2, r3
 800156a:	185b      	adds	r3, r3, r1
 800156c:	781b      	ldrb	r3, [r3, #0]
  cp.use_fixed_pin = use_fixed_pin;
 800156e:	7525      	strb	r5, [r4, #20]
  cp.fixed_pin = htobl(fixed_pin);
 8001570:	7013      	strb	r3, [r2, #0]
 8001572:	9b18      	ldr	r3, [sp, #96]	; 0x60
  cp.bonding_mode = bonding_mode;

  BLUENRG_memset(&rq, 0, sizeof(rq));
 8001574:	ad03      	add	r5, sp, #12
  cp.fixed_pin = htobl(fixed_pin);
 8001576:	0a1b      	lsrs	r3, r3, #8
 8001578:	7053      	strb	r3, [r2, #1]
 800157a:	9b18      	ldr	r3, [sp, #96]	; 0x60
  BLUENRG_memset(&rq, 0, sizeof(rq));
 800157c:	2100      	movs	r1, #0
  cp.fixed_pin = htobl(fixed_pin);
 800157e:	0c1b      	lsrs	r3, r3, #16
 8001580:	7093      	strb	r3, [r2, #2]
 8001582:	9b18      	ldr	r3, [sp, #96]	; 0x60
  BLUENRG_memset(&rq, 0, sizeof(rq));
 8001584:	0028      	movs	r0, r5
  cp.fixed_pin = htobl(fixed_pin);
 8001586:	0e1b      	lsrs	r3, r3, #24
 8001588:	70d3      	strb	r3, [r2, #3]
  cp.bonding_mode = bonding_mode;
 800158a:	466b      	mov	r3, sp
 800158c:	791b      	ldrb	r3, [r3, #4]
  BLUENRG_memset(&rq, 0, sizeof(rq));
 800158e:	2218      	movs	r2, #24
  cp.bonding_mode = bonding_mode;
 8001590:	7663      	strb	r3, [r4, #25]
  cp.min_encryption_key_size = min_encryption_key_size;
 8001592:	74a7      	strb	r7, [r4, #18]
  cp.max_encryption_key_size = max_encryption_key_size;
 8001594:	74e6      	strb	r6, [r4, #19]
  BLUENRG_memset(&rq, 0, sizeof(rq));
 8001596:	f001 fa74 	bl	8002a82 <memset>
  rq.ogf = OGF_VENDOR_CMD;
 800159a:	233f      	movs	r3, #63	; 0x3f
 800159c:	802b      	strh	r3, [r5, #0]
  rq.ocf = OCF_GAP_SET_AUTH_REQUIREMENT;
 800159e:	3347      	adds	r3, #71	; 0x47
 80015a0:	806b      	strh	r3, [r5, #2]
  rq.cparam = &cp;
  rq.clen = sizeof(cp);
 80015a2:	3b6c      	subs	r3, #108	; 0x6c
 80015a4:	60eb      	str	r3, [r5, #12]
  rq.rparam = &status;
 80015a6:	ab02      	add	r3, sp, #8
  rq.cparam = &cp;
 80015a8:	60ac      	str	r4, [r5, #8]
  rq.rparam = &status;
 80015aa:	1cdc      	adds	r4, r3, #3
  rq.rlen = 1;
 80015ac:	2301      	movs	r3, #1

  if (hci_send_req(&rq, FALSE) < 0)
 80015ae:	2100      	movs	r1, #0
 80015b0:	0028      	movs	r0, r5
  rq.rlen = 1;
 80015b2:	616b      	str	r3, [r5, #20]
  rq.rparam = &status;
 80015b4:	612c      	str	r4, [r5, #16]
  if (hci_send_req(&rq, FALSE) < 0)
 80015b6:	f000 fa7b 	bl	8001ab0 <hci_send_req>
    return BLE_STATUS_TIMEOUT;
 80015ba:	23ff      	movs	r3, #255	; 0xff
  if (hci_send_req(&rq, FALSE) < 0)
 80015bc:	2800      	cmp	r0, #0
 80015be:	db00      	blt.n	80015c2 <aci_gap_set_auth_requirement+0x8c>

  if (status) {
 80015c0:	7823      	ldrb	r3, [r4, #0]
    return status;
  }
    
  return 0;
}
 80015c2:	0018      	movs	r0, r3
 80015c4:	b011      	add	sp, #68	; 0x44
 80015c6:	bdf0      	pop	{r4, r5, r6, r7, pc}

080015c8 <aci_gap_update_adv_data>:
  return status;

}

tBleStatus aci_gap_update_adv_data(uint8_t AdvLen, const uint8_t *AdvData)
{
 80015c8:	b570      	push	{r4, r5, r6, lr}
  uint8_t status;
  uint8_t buffer[32];
  uint8_t indx = 0;
    
  if (AdvLen > (sizeof(buffer)-1))
    return BLE_STATUS_INVALID_PARAMS;
 80015ca:	2342      	movs	r3, #66	; 0x42
{
 80015cc:	b090      	sub	sp, #64	; 0x40
 80015ce:	0005      	movs	r5, r0
  if (AdvLen > (sizeof(buffer)-1))
 80015d0:	281f      	cmp	r0, #31
 80015d2:	d821      	bhi.n	8001618 <aci_gap_update_adv_data+0x50>

  buffer[indx] = AdvLen;
 80015d4:	ae08      	add	r6, sp, #32
  indx++;
    
  BLUENRG_memcpy(buffer + indx, AdvData, AdvLen);
 80015d6:	0002      	movs	r2, r0
  buffer[indx] = AdvLen;
 80015d8:	7030      	strb	r0, [r6, #0]
  BLUENRG_memcpy(buffer + indx, AdvData, AdvLen);
 80015da:	2021      	movs	r0, #33	; 0x21
  indx +=  AdvLen;
    
  BLUENRG_memset(&rq, 0, sizeof(rq));
 80015dc:	ac02      	add	r4, sp, #8
  BLUENRG_memcpy(buffer + indx, AdvData, AdvLen);
 80015de:	4468      	add	r0, sp
 80015e0:	f001 fa46 	bl	8002a70 <memcpy>
  BLUENRG_memset(&rq, 0, sizeof(rq));
 80015e4:	2218      	movs	r2, #24
 80015e6:	2100      	movs	r1, #0
 80015e8:	0020      	movs	r0, r4
 80015ea:	f001 fa4a 	bl	8002a82 <memset>
  rq.ogf = OGF_VENDOR_CMD;
 80015ee:	233f      	movs	r3, #63	; 0x3f
 80015f0:	8023      	strh	r3, [r4, #0]
  rq.ocf = OCF_GAP_UPDATE_ADV_DATA;
 80015f2:	334f      	adds	r3, #79	; 0x4f
 80015f4:	8063      	strh	r3, [r4, #2]
  rq.cparam = (void *)buffer;
  rq.clen = indx;
  rq.rparam = &status;
 80015f6:	466b      	mov	r3, sp
  indx +=  AdvLen;
 80015f8:	3501      	adds	r5, #1
  rq.clen = indx;
 80015fa:	b2ed      	uxtb	r5, r5
 80015fc:	60e5      	str	r5, [r4, #12]
  rq.rparam = &status;
 80015fe:	1ddd      	adds	r5, r3, #7
  rq.rlen = 1;
 8001600:	2301      	movs	r3, #1
    
  if (hci_send_req(&rq, FALSE) < 0)
 8001602:	2100      	movs	r1, #0
 8001604:	0020      	movs	r0, r4
  rq.rlen = 1;
 8001606:	6163      	str	r3, [r4, #20]
  rq.cparam = (void *)buffer;
 8001608:	60a6      	str	r6, [r4, #8]
  rq.rparam = &status;
 800160a:	6125      	str	r5, [r4, #16]
  if (hci_send_req(&rq, FALSE) < 0)
 800160c:	f000 fa50 	bl	8001ab0 <hci_send_req>
    return BLE_STATUS_TIMEOUT;
 8001610:	23ff      	movs	r3, #255	; 0xff
  if (hci_send_req(&rq, FALSE) < 0)
 8001612:	2800      	cmp	r0, #0
 8001614:	db00      	blt.n	8001618 <aci_gap_update_adv_data+0x50>
    
  return status;
 8001616:	782b      	ldrb	r3, [r5, #0]
}
 8001618:	0018      	movs	r0, r3
 800161a:	b010      	add	sp, #64	; 0x40
 800161c:	bd70      	pop	{r4, r5, r6, pc}

0800161e <aci_gatt_init>:
#define MIN(a,b)            ((a) < (b) )? (a) : (b)
#define MAX(a,b)            ((a) > (b) )? (a) : (b)


tBleStatus aci_gatt_init(void)
{
 800161e:	b530      	push	{r4, r5, lr}
 8001620:	b089      	sub	sp, #36	; 0x24
  struct hci_request rq;
  uint8_t status;

  BLUENRG_memset(&rq, 0, sizeof(rq));
 8001622:	ac02      	add	r4, sp, #8
 8001624:	2218      	movs	r2, #24
 8001626:	2100      	movs	r1, #0
 8001628:	0020      	movs	r0, r4
 800162a:	f001 fa2a 	bl	8002a82 <memset>
  rq.ogf = OGF_VENDOR_CMD;
 800162e:	233f      	movs	r3, #63	; 0x3f
 8001630:	8023      	strh	r3, [r4, #0]
  rq.ocf = OCF_GATT_INIT;
 8001632:	2302      	movs	r3, #2
 8001634:	33ff      	adds	r3, #255	; 0xff
 8001636:	8063      	strh	r3, [r4, #2]
  rq.rparam = &status;
 8001638:	466b      	mov	r3, sp
 800163a:	1ddd      	adds	r5, r3, #7
  rq.rlen = 1;
 800163c:	2301      	movs	r3, #1

  if (hci_send_req(&rq, FALSE) < 0)
 800163e:	2100      	movs	r1, #0
 8001640:	0020      	movs	r0, r4
  rq.rlen = 1;
 8001642:	6163      	str	r3, [r4, #20]
  rq.rparam = &status;
 8001644:	6125      	str	r5, [r4, #16]
  if (hci_send_req(&rq, FALSE) < 0)
 8001646:	f000 fa33 	bl	8001ab0 <hci_send_req>
    return BLE_STATUS_TIMEOUT;
 800164a:	23ff      	movs	r3, #255	; 0xff
  if (hci_send_req(&rq, FALSE) < 0)
 800164c:	2800      	cmp	r0, #0
 800164e:	db00      	blt.n	8001652 <aci_gatt_init+0x34>

  return status;
 8001650:	782b      	ldrb	r3, [r5, #0]
}
 8001652:	0018      	movs	r0, r3
 8001654:	b009      	add	sp, #36	; 0x24
 8001656:	bd30      	pop	{r4, r5, pc}

08001658 <aci_gatt_add_serv>:

tBleStatus aci_gatt_add_serv(uint8_t service_uuid_type, const uint8_t* service_uuid, uint8_t service_type, uint8_t max_attr_records, uint16_t *serviceHandle)
{
 8001658:	b5f0      	push	{r4, r5, r6, r7, lr}
 800165a:	b08d      	sub	sp, #52	; 0x34
  gatt_add_serv_rp resp;    
  uint8_t buffer[19];
  uint8_t uuid_len;
  uint8_t indx = 0;
    
  buffer[indx] = service_uuid_type;
 800165c:	af01      	add	r7, sp, #4
{
 800165e:	0016      	movs	r6, r2
 8001660:	001c      	movs	r4, r3
  buffer[indx] = service_uuid_type;
 8001662:	7038      	strb	r0, [r7, #0]
  indx++;
    
  if(service_uuid_type == UUID_TYPE_16){
    uuid_len = 2;
 8001664:	2502      	movs	r5, #2
  if(service_uuid_type == UUID_TYPE_16){
 8001666:	2801      	cmp	r0, #1
 8001668:	d000      	beq.n	800166c <aci_gatt_add_serv+0x14>
  }
  else {
    uuid_len = 16;
 800166a:	350e      	adds	r5, #14
  }        
  BLUENRG_memcpy(buffer + indx, service_uuid, uuid_len);
 800166c:	466b      	mov	r3, sp
 800166e:	002a      	movs	r2, r5
 8001670:	1d58      	adds	r0, r3, #5
 8001672:	f001 f9fd 	bl	8002a70 <memcpy>
  indx +=  uuid_len;
    
  buffer[indx] = service_type;
 8001676:	1c6b      	adds	r3, r5, #1
 8001678:	54fe      	strb	r6, [r7, r3]
    
  buffer[indx] = max_attr_records;
  indx++;
    
    
  BLUENRG_memset(&resp, 0, sizeof(resp));
 800167a:	2603      	movs	r6, #3
  buffer[indx] = max_attr_records;
 800167c:	1cab      	adds	r3, r5, #2
 800167e:	54fc      	strb	r4, [r7, r3]
  BLUENRG_memset(&resp, 0, sizeof(resp));
 8001680:	0032      	movs	r2, r6

  BLUENRG_memset(&rq, 0, sizeof(rq));
 8001682:	ac06      	add	r4, sp, #24
  BLUENRG_memset(&resp, 0, sizeof(resp));
 8001684:	2100      	movs	r1, #0
 8001686:	4668      	mov	r0, sp
 8001688:	f001 f9fb 	bl	8002a82 <memset>
  BLUENRG_memset(&rq, 0, sizeof(rq));
 800168c:	2218      	movs	r2, #24
 800168e:	2100      	movs	r1, #0
 8001690:	0020      	movs	r0, r4
 8001692:	f001 f9f6 	bl	8002a82 <memset>
  rq.ogf = OGF_VENDOR_CMD;
 8001696:	233f      	movs	r3, #63	; 0x3f
 8001698:	8023      	strh	r3, [r4, #0]
  rq.ocf = OCF_GATT_ADD_SERV;
 800169a:	33c3      	adds	r3, #195	; 0xc3
 800169c:	8063      	strh	r3, [r4, #2]
  rq.cparam = (void *)buffer;
  rq.clen = indx;
  rq.rparam = &resp;
 800169e:	466b      	mov	r3, sp
  rq.clen = indx;
 80016a0:	19ad      	adds	r5, r5, r6
  rq.rlen = GATT_ADD_SERV_RP_SIZE;

  if (hci_send_req(&rq, FALSE) < 0)
 80016a2:	2100      	movs	r1, #0
 80016a4:	0020      	movs	r0, r4
  rq.rparam = &resp;
 80016a6:	6123      	str	r3, [r4, #16]
  rq.cparam = (void *)buffer;
 80016a8:	60a7      	str	r7, [r4, #8]
  rq.clen = indx;
 80016aa:	60e5      	str	r5, [r4, #12]
  rq.rlen = GATT_ADD_SERV_RP_SIZE;
 80016ac:	6166      	str	r6, [r4, #20]
  if (hci_send_req(&rq, FALSE) < 0)
 80016ae:	f000 f9ff 	bl	8001ab0 <hci_send_req>
    return BLE_STATUS_TIMEOUT;
 80016b2:	23ff      	movs	r3, #255	; 0xff
  if (hci_send_req(&rq, FALSE) < 0)
 80016b4:	2800      	cmp	r0, #0
 80016b6:	db07      	blt.n	80016c8 <aci_gatt_add_serv+0x70>

  if (resp.status) {
 80016b8:	466b      	mov	r3, sp
 80016ba:	781b      	ldrb	r3, [r3, #0]
 80016bc:	2b00      	cmp	r3, #0
 80016be:	d103      	bne.n	80016c8 <aci_gatt_add_serv+0x70>
    return resp.status;
  }
    
  *serviceHandle = btohs(resp.handle);
 80016c0:	9a00      	ldr	r2, [sp, #0]
 80016c2:	9912      	ldr	r1, [sp, #72]	; 0x48
 80016c4:	0a12      	lsrs	r2, r2, #8
 80016c6:	800a      	strh	r2, [r1, #0]

  return 0;
}
 80016c8:	0018      	movs	r0, r3
 80016ca:	b00d      	add	sp, #52	; 0x34
 80016cc:	bdf0      	pop	{r4, r5, r6, r7, pc}

080016ce <aci_gatt_add_char>:
			     uint8_t secPermissions,
			     uint8_t gattEvtMask,
			     uint8_t encryKeySize,
			     uint8_t isVariable,
			     uint16_t* charHandle)                     
{
 80016ce:	b5f0      	push	{r4, r5, r6, r7, lr}
 80016d0:	b093      	sub	sp, #76	; 0x4c
 80016d2:	001f      	movs	r7, r3
 80016d4:	ab18      	add	r3, sp, #96	; 0x60
 80016d6:	781e      	ldrb	r6, [r3, #0]
 80016d8:	ab19      	add	r3, sp, #100	; 0x64
 80016da:	781b      	ldrb	r3, [r3, #0]
  uint8_t buffer[25];
  uint8_t uuid_len;
  uint8_t indx = 0;
    
  serviceHandle = htobs(serviceHandle);
  BLUENRG_memcpy(buffer + indx, &serviceHandle, 2);
 80016dc:	ad0b      	add	r5, sp, #44	; 0x2c
{
 80016de:	9300      	str	r3, [sp, #0]
 80016e0:	ab1a      	add	r3, sp, #104	; 0x68
 80016e2:	781b      	ldrb	r3, [r3, #0]
 80016e4:	4694      	mov	ip, r2
 80016e6:	9301      	str	r3, [sp, #4]
 80016e8:	ab1b      	add	r3, sp, #108	; 0x6c
 80016ea:	781b      	ldrb	r3, [r3, #0]
  BLUENRG_memcpy(buffer + indx, &serviceHandle, 2);
 80016ec:	8028      	strh	r0, [r5, #0]
{
 80016ee:	9302      	str	r3, [sp, #8]
 80016f0:	ab1c      	add	r3, sp, #112	; 0x70
 80016f2:	781b      	ldrb	r3, [r3, #0]
  indx += 2;
    
  buffer[indx] = charUuidType;
 80016f4:	70a9      	strb	r1, [r5, #2]
{
 80016f6:	9303      	str	r3, [sp, #12]
  indx++;
    
  if(charUuidType == UUID_TYPE_16){
    uuid_len = 2;
 80016f8:	2402      	movs	r4, #2
  if(charUuidType == UUID_TYPE_16){
 80016fa:	2901      	cmp	r1, #1
 80016fc:	d000      	beq.n	8001700 <aci_gatt_add_char+0x32>
  }
  else {
    uuid_len = 16;
 80016fe:	340e      	adds	r4, #14
  }        
  BLUENRG_memcpy(buffer + indx, charUuid, uuid_len);
 8001700:	201f      	movs	r0, #31
 8001702:	ab04      	add	r3, sp, #16
 8001704:	4661      	mov	r1, ip
 8001706:	0022      	movs	r2, r4
 8001708:	18c0      	adds	r0, r0, r3
 800170a:	f001 f9b1 	bl	8002a70 <memcpy>
  indx++;
    
  buffer[indx] = charProperties;
  indx++;
    
  buffer[indx] = secPermissions;
 800170e:	466a      	mov	r2, sp
  buffer[indx] = charValueLen;
 8001710:	1ce3      	adds	r3, r4, #3
 8001712:	54ef      	strb	r7, [r5, r3]
  buffer[indx] = secPermissions;
 8001714:	7812      	ldrb	r2, [r2, #0]
  buffer[indx] = charProperties;
 8001716:	1d23      	adds	r3, r4, #4
 8001718:	54ee      	strb	r6, [r5, r3]
  buffer[indx] = secPermissions;
 800171a:	1d63      	adds	r3, r4, #5
 800171c:	54ea      	strb	r2, [r5, r3]
  indx++;
    
  buffer[indx] = gattEvtMask;
 800171e:	466a      	mov	r2, sp
 8001720:	7912      	ldrb	r2, [r2, #4]
 8001722:	1da3      	adds	r3, r4, #6
 8001724:	54ea      	strb	r2, [r5, r3]
  indx++;
    
  buffer[indx] = encryKeySize;
 8001726:	466a      	mov	r2, sp
 8001728:	7a12      	ldrb	r2, [r2, #8]
 800172a:	1de3      	adds	r3, r4, #7
 800172c:	54ea      	strb	r2, [r5, r3]
  indx++;
    
  buffer[indx] = isVariable;
 800172e:	466a      	mov	r2, sp
  indx++;
    
  BLUENRG_memset(&resp, 0, sizeof(resp));
 8001730:	2703      	movs	r7, #3
  buffer[indx] = isVariable;
 8001732:	7b12      	ldrb	r2, [r2, #12]
 8001734:	3301      	adds	r3, #1

  BLUENRG_memset(&rq, 0, sizeof(rq));
 8001736:	ae05      	add	r6, sp, #20
  buffer[indx] = isVariable;
 8001738:	54ea      	strb	r2, [r5, r3]
  BLUENRG_memset(&resp, 0, sizeof(resp));
 800173a:	2100      	movs	r1, #0
 800173c:	003a      	movs	r2, r7
 800173e:	a804      	add	r0, sp, #16
 8001740:	f001 f99f 	bl	8002a82 <memset>
  BLUENRG_memset(&rq, 0, sizeof(rq));
 8001744:	2218      	movs	r2, #24
 8001746:	2100      	movs	r1, #0
 8001748:	0030      	movs	r0, r6
 800174a:	f001 f99a 	bl	8002a82 <memset>
  rq.ogf = OGF_VENDOR_CMD;
 800174e:	233f      	movs	r3, #63	; 0x3f
 8001750:	8033      	strh	r3, [r6, #0]
  rq.ocf = OCF_GATT_ADD_CHAR;
 8001752:	33c5      	adds	r3, #197	; 0xc5
 8001754:	8073      	strh	r3, [r6, #2]
  rq.cparam = (void *)buffer;
  rq.clen = indx;
 8001756:	3409      	adds	r4, #9
  rq.rparam = &resp;
 8001758:	ab04      	add	r3, sp, #16
  rq.rlen = GATT_ADD_CHAR_RP_SIZE;

  if (hci_send_req(&rq, FALSE) < 0)
 800175a:	2100      	movs	r1, #0
 800175c:	0030      	movs	r0, r6
  rq.rparam = &resp;
 800175e:	6133      	str	r3, [r6, #16]
  rq.cparam = (void *)buffer;
 8001760:	60b5      	str	r5, [r6, #8]
  rq.clen = indx;
 8001762:	60f4      	str	r4, [r6, #12]
  rq.rlen = GATT_ADD_CHAR_RP_SIZE;
 8001764:	6177      	str	r7, [r6, #20]
  if (hci_send_req(&rq, FALSE) < 0)
 8001766:	f000 f9a3 	bl	8001ab0 <hci_send_req>
    return BLE_STATUS_TIMEOUT;
 800176a:	23ff      	movs	r3, #255	; 0xff
  if (hci_send_req(&rq, FALSE) < 0)
 800176c:	2800      	cmp	r0, #0
 800176e:	db07      	blt.n	8001780 <aci_gatt_add_char+0xb2>

  if (resp.status) {
 8001770:	ab04      	add	r3, sp, #16
 8001772:	781b      	ldrb	r3, [r3, #0]
 8001774:	2b00      	cmp	r3, #0
 8001776:	d103      	bne.n	8001780 <aci_gatt_add_char+0xb2>
    return resp.status;
  }
    
  *charHandle = btohs(resp.handle);
 8001778:	9a04      	ldr	r2, [sp, #16]
 800177a:	991d      	ldr	r1, [sp, #116]	; 0x74
 800177c:	0a12      	lsrs	r2, r2, #8
 800177e:	800a      	strh	r2, [r1, #0]

  return 0;
}
 8001780:	0018      	movs	r0, r3
 8001782:	b013      	add	sp, #76	; 0x4c
 8001784:	bdf0      	pop	{r4, r5, r6, r7, pc}

08001786 <aci_gatt_update_char_value>:
tBleStatus aci_gatt_update_char_value(uint16_t servHandle, 
				      uint16_t charHandle,
				      uint8_t charValOffset,
				      uint8_t charValueLen,   
                                      const void *charValue)
{
 8001786:	b570      	push	{r4, r5, r6, lr}
 8001788:	001d      	movs	r5, r3
 800178a:	b0a8      	sub	sp, #160	; 0xa0
  uint8_t status;
  uint8_t buffer[HCI_MAX_PAYLOAD_SIZE];
  uint8_t indx = 0;
    
  if ((charValueLen+6) > HCI_MAX_PAYLOAD_SIZE)
    return BLE_STATUS_INVALID_PARAMS;
 800178c:	2342      	movs	r3, #66	; 0x42
  if ((charValueLen+6) > HCI_MAX_PAYLOAD_SIZE)
 800178e:	2d7a      	cmp	r5, #122	; 0x7a
 8001790:	dc25      	bgt.n	80017de <aci_gatt_update_char_value+0x58>

  servHandle = htobs(servHandle);
  BLUENRG_memcpy(buffer + indx, &servHandle, 2);
 8001792:	ae08      	add	r6, sp, #32
 8001794:	8030      	strh	r0, [r6, #0]
  indx++;
    
  buffer[indx] = charValueLen;
  indx++;
        
  BLUENRG_memcpy(buffer + indx, charValue, charValueLen);
 8001796:	2026      	movs	r0, #38	; 0x26
  indx +=  charValueLen;

  BLUENRG_memset(&rq, 0, sizeof(rq));
 8001798:	ac02      	add	r4, sp, #8
  BLUENRG_memcpy(buffer + indx, &charHandle, 2);
 800179a:	8071      	strh	r1, [r6, #2]
  buffer[indx] = charValOffset;
 800179c:	7132      	strb	r2, [r6, #4]
  BLUENRG_memcpy(buffer + indx, charValue, charValueLen);
 800179e:	992c      	ldr	r1, [sp, #176]	; 0xb0
 80017a0:	002a      	movs	r2, r5
 80017a2:	4468      	add	r0, sp
  buffer[indx] = charValueLen;
 80017a4:	7175      	strb	r5, [r6, #5]
  BLUENRG_memcpy(buffer + indx, charValue, charValueLen);
 80017a6:	f001 f963 	bl	8002a70 <memcpy>
  BLUENRG_memset(&rq, 0, sizeof(rq));
 80017aa:	2218      	movs	r2, #24
 80017ac:	2100      	movs	r1, #0
 80017ae:	0020      	movs	r0, r4
 80017b0:	f001 f967 	bl	8002a82 <memset>
  rq.ogf = OGF_VENDOR_CMD;
 80017b4:	233f      	movs	r3, #63	; 0x3f
 80017b6:	8023      	strh	r3, [r4, #0]
  rq.ocf = OCF_GATT_UPD_CHAR_VAL;
 80017b8:	33c7      	adds	r3, #199	; 0xc7
 80017ba:	8063      	strh	r3, [r4, #2]
  rq.cparam = (void *)buffer;
  rq.clen = indx;
  rq.rparam = &status;
 80017bc:	466b      	mov	r3, sp
  indx +=  charValueLen;
 80017be:	3506      	adds	r5, #6
  rq.clen = indx;
 80017c0:	b2ed      	uxtb	r5, r5
 80017c2:	60e5      	str	r5, [r4, #12]
  rq.rparam = &status;
 80017c4:	1ddd      	adds	r5, r3, #7
  rq.rlen = 1;
 80017c6:	2301      	movs	r3, #1

  if (hci_send_req(&rq, FALSE) < 0)
 80017c8:	2100      	movs	r1, #0
 80017ca:	0020      	movs	r0, r4
  rq.rlen = 1;
 80017cc:	6163      	str	r3, [r4, #20]
  rq.cparam = (void *)buffer;
 80017ce:	60a6      	str	r6, [r4, #8]
  rq.rparam = &status;
 80017d0:	6125      	str	r5, [r4, #16]
  if (hci_send_req(&rq, FALSE) < 0)
 80017d2:	f000 f96d 	bl	8001ab0 <hci_send_req>
    return BLE_STATUS_TIMEOUT;
 80017d6:	23ff      	movs	r3, #255	; 0xff
  if (hci_send_req(&rq, FALSE) < 0)
 80017d8:	2800      	cmp	r0, #0
 80017da:	db00      	blt.n	80017de <aci_gatt_update_char_value+0x58>

  if (status) {
 80017dc:	782b      	ldrb	r3, [r5, #0]
    return status;
  }

  return 0;
}
 80017de:	0018      	movs	r0, r3
 80017e0:	b028      	add	sp, #160	; 0xa0
 80017e2:	bd70      	pop	{r4, r5, r6, pc}

080017e4 <aci_gatt_allow_read>:

  return 0;
}

tBleStatus aci_gatt_allow_read(uint16_t conn_handle)
{
 80017e4:	b530      	push	{r4, r5, lr}
 80017e6:	b089      	sub	sp, #36	; 0x24
    gatt_allow_read_cp cp;
    uint8_t status;
    
    cp.conn_handle = htobs(conn_handle);

    BLUENRG_memset(&rq, 0, sizeof(rq));
 80017e8:	ac02      	add	r4, sp, #8
    cp.conn_handle = htobs(conn_handle);
 80017ea:	ad01      	add	r5, sp, #4
 80017ec:	8028      	strh	r0, [r5, #0]
    BLUENRG_memset(&rq, 0, sizeof(rq));
 80017ee:	2218      	movs	r2, #24
 80017f0:	2100      	movs	r1, #0
 80017f2:	0020      	movs	r0, r4
 80017f4:	f001 f945 	bl	8002a82 <memset>
    rq.ogf = OGF_VENDOR_CMD;
 80017f8:	233f      	movs	r3, #63	; 0x3f
 80017fa:	8023      	strh	r3, [r4, #0]
    rq.ocf = OCF_GATT_ALLOW_READ;
 80017fc:	2328      	movs	r3, #40	; 0x28
 80017fe:	33ff      	adds	r3, #255	; 0xff
 8001800:	8063      	strh	r3, [r4, #2]
    rq.cparam = &cp;
    rq.clen = GATT_ALLOW_READ_CP_SIZE;
 8001802:	3b26      	subs	r3, #38	; 0x26
 8001804:	3bff      	subs	r3, #255	; 0xff
 8001806:	60e3      	str	r3, [r4, #12]
    rq.rparam = &status;
 8001808:	466b      	mov	r3, sp
    rq.cparam = &cp;
 800180a:	60a5      	str	r5, [r4, #8]
    rq.rparam = &status;
 800180c:	1cdd      	adds	r5, r3, #3
    rq.rlen = 1;
 800180e:	2301      	movs	r3, #1

    if (hci_send_req(&rq, FALSE) < 0)
 8001810:	2100      	movs	r1, #0
 8001812:	0020      	movs	r0, r4
    rq.rlen = 1;
 8001814:	6163      	str	r3, [r4, #20]
    rq.rparam = &status;
 8001816:	6125      	str	r5, [r4, #16]
    if (hci_send_req(&rq, FALSE) < 0)
 8001818:	f000 f94a 	bl	8001ab0 <hci_send_req>
      return BLE_STATUS_TIMEOUT;
 800181c:	23ff      	movs	r3, #255	; 0xff
    if (hci_send_req(&rq, FALSE) < 0)
 800181e:	2800      	cmp	r0, #0
 8001820:	db00      	blt.n	8001824 <aci_gatt_allow_read+0x40>

    return status;
 8001822:	782b      	ldrb	r3, [r5, #0]
}
 8001824:	0018      	movs	r0, r3
 8001826:	b009      	add	sp, #36	; 0x24
 8001828:	bd30      	pop	{r4, r5, pc}

0800182a <aci_hal_write_config_data>:
}

tBleStatus aci_hal_write_config_data(uint8_t offset, 
                                    uint8_t len,
                                    const uint8_t *val)
{
 800182a:	b570      	push	{r4, r5, r6, lr}
  uint8_t status;
  uint8_t buffer[HCI_MAX_PAYLOAD_SIZE];
  uint8_t indx = 0;
    
  if ((len+2) > HCI_MAX_PAYLOAD_SIZE)
    return BLE_STATUS_INVALID_PARAMS;
 800182c:	2342      	movs	r3, #66	; 0x42
{
 800182e:	000d      	movs	r5, r1
 8001830:	b0a8      	sub	sp, #160	; 0xa0
 8001832:	0011      	movs	r1, r2
  if ((len+2) > HCI_MAX_PAYLOAD_SIZE)
 8001834:	2d7e      	cmp	r5, #126	; 0x7e
 8001836:	dc22      	bgt.n	800187e <aci_hal_write_config_data+0x54>

  buffer[indx] = offset;
 8001838:	ae08      	add	r6, sp, #32
 800183a:	7030      	strb	r0, [r6, #0]
  indx++;
    
  buffer[indx] = len;
  indx++;
        
  BLUENRG_memcpy(buffer + indx, val, len);
 800183c:	2022      	movs	r0, #34	; 0x22
  indx +=  len;

  BLUENRG_memset(&rq, 0, sizeof(rq));
 800183e:	ac02      	add	r4, sp, #8
  BLUENRG_memcpy(buffer + indx, val, len);
 8001840:	002a      	movs	r2, r5
 8001842:	4468      	add	r0, sp
  buffer[indx] = len;
 8001844:	7075      	strb	r5, [r6, #1]
  BLUENRG_memcpy(buffer + indx, val, len);
 8001846:	f001 f913 	bl	8002a70 <memcpy>
  BLUENRG_memset(&rq, 0, sizeof(rq));
 800184a:	2218      	movs	r2, #24
 800184c:	2100      	movs	r1, #0
 800184e:	0020      	movs	r0, r4
 8001850:	f001 f917 	bl	8002a82 <memset>
  rq.ogf = OGF_VENDOR_CMD;
 8001854:	233f      	movs	r3, #63	; 0x3f
 8001856:	8023      	strh	r3, [r4, #0]
  rq.ocf = OCF_HAL_WRITE_CONFIG_DATA;
 8001858:	3b33      	subs	r3, #51	; 0x33
 800185a:	8063      	strh	r3, [r4, #2]
  rq.cparam = (void *)buffer;
  rq.clen = indx;
  rq.rparam = &status;
 800185c:	466b      	mov	r3, sp
  indx +=  len;
 800185e:	3502      	adds	r5, #2
  rq.clen = indx;
 8001860:	b2ed      	uxtb	r5, r5
 8001862:	60e5      	str	r5, [r4, #12]
  rq.rparam = &status;
 8001864:	1ddd      	adds	r5, r3, #7
  rq.rlen = 1;
 8001866:	2301      	movs	r3, #1

  if (hci_send_req(&rq, FALSE) < 0)
 8001868:	2100      	movs	r1, #0
 800186a:	0020      	movs	r0, r4
  rq.rlen = 1;
 800186c:	6163      	str	r3, [r4, #20]
  rq.cparam = (void *)buffer;
 800186e:	60a6      	str	r6, [r4, #8]
  rq.rparam = &status;
 8001870:	6125      	str	r5, [r4, #16]
  if (hci_send_req(&rq, FALSE) < 0)
 8001872:	f000 f91d 	bl	8001ab0 <hci_send_req>
    return BLE_STATUS_TIMEOUT;
 8001876:	23ff      	movs	r3, #255	; 0xff
  if (hci_send_req(&rq, FALSE) < 0)
 8001878:	2800      	cmp	r0, #0
 800187a:	db00      	blt.n	800187e <aci_hal_write_config_data+0x54>

  return status;
 800187c:	782b      	ldrb	r3, [r5, #0]
}
 800187e:	0018      	movs	r0, r3
 8001880:	b028      	add	sp, #160	; 0xa0
 8001882:	bd70      	pop	{r4, r5, r6, pc}

08001884 <aci_hal_set_tx_power_level>:
  
  return 0;
}

tBleStatus aci_hal_set_tx_power_level(uint8_t en_high_power, uint8_t pa_level)
{
 8001884:	b530      	push	{r4, r5, lr}
 8001886:	b089      	sub	sp, #36	; 0x24
  uint8_t status;
    
  cp.en_high_power = en_high_power;
  cp.pa_level = pa_level;

  BLUENRG_memset(&rq, 0, sizeof(rq));
 8001888:	ac02      	add	r4, sp, #8
  cp.en_high_power = en_high_power;
 800188a:	ad01      	add	r5, sp, #4
 800188c:	7028      	strb	r0, [r5, #0]
  cp.pa_level = pa_level;
 800188e:	7069      	strb	r1, [r5, #1]
  BLUENRG_memset(&rq, 0, sizeof(rq));
 8001890:	2218      	movs	r2, #24
 8001892:	2100      	movs	r1, #0
 8001894:	0020      	movs	r0, r4
 8001896:	f001 f8f4 	bl	8002a82 <memset>
  rq.ogf = OGF_VENDOR_CMD;
 800189a:	233f      	movs	r3, #63	; 0x3f
 800189c:	8023      	strh	r3, [r4, #0]
  rq.ocf = OCF_HAL_SET_TX_POWER_LEVEL;
 800189e:	3b30      	subs	r3, #48	; 0x30
 80018a0:	8063      	strh	r3, [r4, #2]
  rq.cparam = &cp;
  rq.clen = HAL_SET_TX_POWER_LEVEL_CP_SIZE;
 80018a2:	3b0d      	subs	r3, #13
 80018a4:	60e3      	str	r3, [r4, #12]
  rq.rparam = &status;
 80018a6:	466b      	mov	r3, sp
  rq.cparam = &cp;
 80018a8:	60a5      	str	r5, [r4, #8]
  rq.rparam = &status;
 80018aa:	1cdd      	adds	r5, r3, #3
  rq.rlen = 1;
 80018ac:	2301      	movs	r3, #1

  if (hci_send_req(&rq, FALSE) < 0)
 80018ae:	2100      	movs	r1, #0
 80018b0:	0020      	movs	r0, r4
  rq.rlen = 1;
 80018b2:	6163      	str	r3, [r4, #20]
  rq.rparam = &status;
 80018b4:	6125      	str	r5, [r4, #16]
  if (hci_send_req(&rq, FALSE) < 0)
 80018b6:	f000 f8fb 	bl	8001ab0 <hci_send_req>
    return BLE_STATUS_TIMEOUT;
 80018ba:	23ff      	movs	r3, #255	; 0xff
  if (hci_send_req(&rq, FALSE) < 0)
 80018bc:	2800      	cmp	r0, #0
 80018be:	db00      	blt.n	80018c2 <aci_hal_set_tx_power_level+0x3e>

  return status;
 80018c0:	782b      	ldrb	r3, [r5, #0]
}
 80018c2:	0018      	movs	r0, r3
 80018c4:	b009      	add	sp, #36	; 0x24
 80018c6:	bd30      	pop	{r4, r5, pc}

080018c8 <getBlueNRGVersion>:
#include "hci.h"
#include "hci_le.h"
#include "string.h"

uint8_t getBlueNRGVersion(uint8_t *hwVersion, uint16_t *fwVersion)
{
 80018c8:	b5f0      	push	{r4, r5, r6, r7, lr}
  uint8_t status;
  uint8_t hci_version, lmp_pal_version;
  uint16_t hci_revision, manufacturer_name, lmp_pal_subversion;

  status = hci_le_read_local_version(&hci_version, &hci_revision, &lmp_pal_version, 
 80018ca:	270a      	movs	r7, #10
 80018cc:	250e      	movs	r5, #14
 80018ce:	2209      	movs	r2, #9
{
 80018d0:	b085      	sub	sp, #20
  status = hci_le_read_local_version(&hci_version, &hci_revision, &lmp_pal_version, 
 80018d2:	446f      	add	r7, sp
 80018d4:	446d      	add	r5, sp
{
 80018d6:	0006      	movs	r6, r0
 80018d8:	000c      	movs	r4, r1
  status = hci_le_read_local_version(&hci_version, &hci_revision, &lmp_pal_version, 
 80018da:	9500      	str	r5, [sp, #0]
 80018dc:	ab03      	add	r3, sp, #12
 80018de:	446a      	add	r2, sp
 80018e0:	0039      	movs	r1, r7
 80018e2:	a802      	add	r0, sp, #8
 80018e4:	f000 f82c 	bl	8001940 <hci_le_read_local_version>
 80018e8:	b2c0      	uxtb	r0, r0
				     &manufacturer_name, &lmp_pal_subversion);

  if (status == BLE_STATUS_SUCCESS) {
 80018ea:	2800      	cmp	r0, #0
 80018ec:	d10b      	bne.n	8001906 <getBlueNRGVersion+0x3e>
    *hwVersion = hci_revision >> 8;
    *fwVersion = (hci_revision & 0xFF) << 8;              // Major Version Number
    *fwVersion |= ((lmp_pal_subversion >> 4) & 0xF) << 4; // Minor Version Number
    *fwVersion |= lmp_pal_subversion & 0xF;               // Patch Version Number
 80018ee:	210f      	movs	r1, #15
    *hwVersion = hci_revision >> 8;
 80018f0:	883b      	ldrh	r3, [r7, #0]
 80018f2:	0a1a      	lsrs	r2, r3, #8
 80018f4:	7032      	strb	r2, [r6, #0]
    *fwVersion |= ((lmp_pal_subversion >> 4) & 0xF) << 4; // Minor Version Number
 80018f6:	882a      	ldrh	r2, [r5, #0]
    *fwVersion = (hci_revision & 0xFF) << 8;              // Major Version Number
 80018f8:	021b      	lsls	r3, r3, #8
    *fwVersion |= lmp_pal_subversion & 0xF;               // Patch Version Number
 80018fa:	4011      	ands	r1, r2
 80018fc:	430b      	orrs	r3, r1
    *fwVersion |= ((lmp_pal_subversion >> 4) & 0xF) << 4; // Minor Version Number
 80018fe:	21f0      	movs	r1, #240	; 0xf0
 8001900:	400a      	ands	r2, r1
    *fwVersion |= lmp_pal_subversion & 0xF;               // Patch Version Number
 8001902:	4313      	orrs	r3, r2
 8001904:	8023      	strh	r3, [r4, #0]
  }
  return status;
}
 8001906:	b005      	add	sp, #20
 8001908:	bdf0      	pop	{r4, r5, r6, r7, pc}

0800190a <hci_reset>:

#define MIN(a,b)            ((a) < (b) )? (a) : (b)
#define MAX(a,b)            ((a) > (b) )? (a) : (b)

int hci_reset(void)
{
 800190a:	b530      	push	{r4, r5, lr}
 800190c:	b089      	sub	sp, #36	; 0x24
  struct hci_request rq;
  uint8_t status;
  
  BLUENRG_memset(&rq, 0, sizeof(rq));
 800190e:	ac02      	add	r4, sp, #8
 8001910:	2218      	movs	r2, #24
 8001912:	2100      	movs	r1, #0
 8001914:	0020      	movs	r0, r4
 8001916:	f001 f8b4 	bl	8002a82 <memset>
  rq.ogf = OGF_HOST_CTL;
 800191a:	2303      	movs	r3, #3
 800191c:	8023      	strh	r3, [r4, #0]
  rq.ocf = OCF_RESET;
 800191e:	8063      	strh	r3, [r4, #2]
  rq.rparam = &status;
 8001920:	466b      	mov	r3, sp
 8001922:	1ddd      	adds	r5, r3, #7
  rq.rlen = 1;
 8001924:	2301      	movs	r3, #1
  
  if (hci_send_req(&rq, FALSE) < 0)
 8001926:	2100      	movs	r1, #0
 8001928:	0020      	movs	r0, r4
  rq.rlen = 1;
 800192a:	6163      	str	r3, [r4, #20]
  rq.rparam = &status;
 800192c:	6125      	str	r5, [r4, #16]
  if (hci_send_req(&rq, FALSE) < 0)
 800192e:	f000 f8bf 	bl	8001ab0 <hci_send_req>
 8001932:	23ff      	movs	r3, #255	; 0xff
 8001934:	2800      	cmp	r0, #0
 8001936:	db00      	blt.n	800193a <hci_reset+0x30>
    return BLE_STATUS_TIMEOUT;
  
  return status;  
 8001938:	782b      	ldrb	r3, [r5, #0]
}
 800193a:	0018      	movs	r0, r3
 800193c:	b009      	add	sp, #36	; 0x24
 800193e:	bd30      	pop	{r4, r5, pc}

08001940 <hci_le_read_local_version>:
  return status;  
}

int hci_le_read_local_version(uint8_t *hci_version, uint16_t *hci_revision, uint8_t *lmp_pal_version, 
                              uint16_t *manufacturer_name, uint16_t *lmp_pal_subversion)
{
 8001940:	b5f0      	push	{r4, r5, r6, r7, lr}
  struct hci_request rq;
  read_local_version_rp resp;
  
  BLUENRG_memset(&resp, 0, sizeof(resp));
 8001942:	2609      	movs	r6, #9
{
 8001944:	b08f      	sub	sp, #60	; 0x3c
  BLUENRG_memset(&resp, 0, sizeof(resp));
 8001946:	ac05      	add	r4, sp, #20
  
  BLUENRG_memset(&rq, 0, sizeof(rq));
 8001948:	ad08      	add	r5, sp, #32
{
 800194a:	9101      	str	r1, [sp, #4]
 800194c:	9202      	str	r2, [sp, #8]
  BLUENRG_memset(&resp, 0, sizeof(resp));
 800194e:	2100      	movs	r1, #0
 8001950:	0032      	movs	r2, r6
{
 8001952:	0007      	movs	r7, r0
  BLUENRG_memset(&resp, 0, sizeof(resp));
 8001954:	0020      	movs	r0, r4
{
 8001956:	9303      	str	r3, [sp, #12]
  BLUENRG_memset(&resp, 0, sizeof(resp));
 8001958:	f001 f893 	bl	8002a82 <memset>
  BLUENRG_memset(&rq, 0, sizeof(rq));
 800195c:	2218      	movs	r2, #24
 800195e:	2100      	movs	r1, #0
 8001960:	0028      	movs	r0, r5
 8001962:	f001 f88e 	bl	8002a82 <memset>
  rq.ogf = OGF_INFO_PARAM;
 8001966:	2304      	movs	r3, #4
  rq.cparam = NULL;
  rq.clen = 0;
  rq.rparam = &resp;
  rq.rlen = READ_LOCAL_VERSION_RP_SIZE;
  
  if (hci_send_req(&rq, FALSE) < 0)
 8001968:	2100      	movs	r1, #0
  rq.ogf = OGF_INFO_PARAM;
 800196a:	802b      	strh	r3, [r5, #0]
  if (hci_send_req(&rq, FALSE) < 0)
 800196c:	0028      	movs	r0, r5
  rq.ocf = OCF_READ_LOCAL_VERSION;
 800196e:	3b03      	subs	r3, #3
 8001970:	806b      	strh	r3, [r5, #2]
  rq.rparam = &resp;
 8001972:	612c      	str	r4, [r5, #16]
  rq.rlen = READ_LOCAL_VERSION_RP_SIZE;
 8001974:	616e      	str	r6, [r5, #20]
  if (hci_send_req(&rq, FALSE) < 0)
 8001976:	f000 f89b 	bl	8001ab0 <hci_send_req>
 800197a:	0003      	movs	r3, r0
    return BLE_STATUS_TIMEOUT;
 800197c:	20ff      	movs	r0, #255	; 0xff
  if (hci_send_req(&rq, FALSE) < 0)
 800197e:	2b00      	cmp	r3, #0
 8001980:	db14      	blt.n	80019ac <hci_le_read_local_version+0x6c>
  
  if (resp.status) {
 8001982:	7820      	ldrb	r0, [r4, #0]
 8001984:	2800      	cmp	r0, #0
 8001986:	d111      	bne.n	80019ac <hci_le_read_local_version+0x6c>
    return resp.status;
  }
  
  
  *hci_version = resp.hci_version;
 8001988:	7863      	ldrb	r3, [r4, #1]
  *hci_revision =  btohs(resp.hci_revision);
 800198a:	9a01      	ldr	r2, [sp, #4]
  *hci_version = resp.hci_version;
 800198c:	703b      	strb	r3, [r7, #0]
  *hci_revision =  btohs(resp.hci_revision);
 800198e:	8863      	ldrh	r3, [r4, #2]
 8001990:	8013      	strh	r3, [r2, #0]
  *lmp_pal_version = resp.lmp_pal_version;
 8001992:	7923      	ldrb	r3, [r4, #4]
 8001994:	9a02      	ldr	r2, [sp, #8]
 8001996:	7013      	strb	r3, [r2, #0]
  *manufacturer_name = btohs(resp.manufacturer_name);
 8001998:	6863      	ldr	r3, [r4, #4]
 800199a:	9a03      	ldr	r2, [sp, #12]
 800199c:	0a1b      	lsrs	r3, r3, #8
 800199e:	8013      	strh	r3, [r2, #0]
  *lmp_pal_subversion = btohs(resp.lmp_pal_subversion);
 80019a0:	7a23      	ldrb	r3, [r4, #8]
 80019a2:	79e2      	ldrb	r2, [r4, #7]
 80019a4:	021b      	lsls	r3, r3, #8
 80019a6:	4313      	orrs	r3, r2
 80019a8:	9a14      	ldr	r2, [sp, #80]	; 0x50
 80019aa:	8013      	strh	r3, [r2, #0]
  
  return 0;
}
 80019ac:	b00f      	add	sp, #60	; 0x3c
 80019ae:	bdf0      	pop	{r4, r5, r6, r7, pc}

080019b0 <hci_le_set_scan_resp_data>:
  
  return 0;
}

int hci_le_set_scan_resp_data(uint8_t length, const uint8_t data[])
{
 80019b0:	b570      	push	{r4, r5, r6, lr}
 80019b2:	0006      	movs	r6, r0
 80019b4:	b090      	sub	sp, #64	; 0x40
  struct hci_request rq;
  le_set_scan_response_data_cp scan_resp_cp;
  uint8_t status;
  
  BLUENRG_memset(&scan_resp_cp, 0, sizeof(scan_resp_cp));
 80019b6:	ad08      	add	r5, sp, #32
 80019b8:	2220      	movs	r2, #32
{
 80019ba:	000c      	movs	r4, r1
  BLUENRG_memset(&scan_resp_cp, 0, sizeof(scan_resp_cp));
 80019bc:	0028      	movs	r0, r5
 80019be:	2100      	movs	r1, #0
 80019c0:	f001 f85f 	bl	8002a82 <memset>
  scan_resp_cp.length = length;
 80019c4:	702e      	strb	r6, [r5, #0]
  BLUENRG_memcpy(scan_resp_cp.data, data, MIN(31,length));
 80019c6:	1c32      	adds	r2, r6, #0
 80019c8:	2e1f      	cmp	r6, #31
 80019ca:	d900      	bls.n	80019ce <hci_le_set_scan_resp_data+0x1e>
 80019cc:	221f      	movs	r2, #31
 80019ce:	2021      	movs	r0, #33	; 0x21
 80019d0:	0021      	movs	r1, r4
 80019d2:	b2d2      	uxtb	r2, r2
  
  BLUENRG_memset(&rq, 0, sizeof(rq));
 80019d4:	ac02      	add	r4, sp, #8
  BLUENRG_memcpy(scan_resp_cp.data, data, MIN(31,length));
 80019d6:	4468      	add	r0, sp
 80019d8:	f001 f84a 	bl	8002a70 <memcpy>
  BLUENRG_memset(&rq, 0, sizeof(rq));
 80019dc:	2218      	movs	r2, #24
 80019de:	2100      	movs	r1, #0
 80019e0:	0020      	movs	r0, r4
 80019e2:	f001 f84e 	bl	8002a82 <memset>
  rq.ogf = OGF_LE_CTL;
 80019e6:	2308      	movs	r3, #8
 80019e8:	8023      	strh	r3, [r4, #0]
  rq.ocf = OCF_LE_SET_SCAN_RESPONSE_DATA;
 80019ea:	3301      	adds	r3, #1
 80019ec:	8063      	strh	r3, [r4, #2]
  rq.cparam = &scan_resp_cp;
  rq.clen = LE_SET_SCAN_RESPONSE_DATA_CP_SIZE;
 80019ee:	3317      	adds	r3, #23
 80019f0:	60e3      	str	r3, [r4, #12]
  rq.rparam = &status;
 80019f2:	466b      	mov	r3, sp
  rq.cparam = &scan_resp_cp;
 80019f4:	60a5      	str	r5, [r4, #8]
  rq.rparam = &status;
 80019f6:	1ddd      	adds	r5, r3, #7
  rq.rlen = 1;
 80019f8:	2301      	movs	r3, #1
  
  if (hci_send_req(&rq, FALSE) < 0)
 80019fa:	2100      	movs	r1, #0
 80019fc:	0020      	movs	r0, r4
  rq.rlen = 1;
 80019fe:	6163      	str	r3, [r4, #20]
  rq.rparam = &status;
 8001a00:	6125      	str	r5, [r4, #16]
  if (hci_send_req(&rq, FALSE) < 0)
 8001a02:	f000 f855 	bl	8001ab0 <hci_send_req>
 8001a06:	23ff      	movs	r3, #255	; 0xff
 8001a08:	2800      	cmp	r0, #0
 8001a0a:	db00      	blt.n	8001a0e <hci_le_set_scan_resp_data+0x5e>
    return BLE_STATUS_TIMEOUT;
  
  return status;
 8001a0c:	782b      	ldrb	r3, [r5, #0]
}
 8001a0e:	0018      	movs	r0, r3
 8001a10:	b010      	add	sp, #64	; 0x40
 8001a12:	bd70      	pop	{r4, r5, r6, pc}

08001a14 <move_list.constprop.0>:
  *
  * @param  dest_list
  * @param  src_list
  * @retval None
  */
static void move_list(tListNode * dest_list, tListNode * src_list)
 8001a14:	b513      	push	{r0, r1, r4, lr}
 8001a16:	0004      	movs	r4, r0
{
  pListNode tmp_node;
  
  while (!list_is_empty(src_list))
 8001a18:	0020      	movs	r0, r4
 8001a1a:	f000 f96c 	bl	8001cf6 <list_is_empty>
 8001a1e:	2800      	cmp	r0, #0
 8001a20:	d000      	beq.n	8001a24 <move_list.constprop.0+0x10>
  {
    list_remove_tail(src_list, &tmp_node);
    list_insert_head(dest_list, tmp_node);
  }
}
 8001a22:	bd13      	pop	{r0, r1, r4, pc}
    list_remove_tail(src_list, &tmp_node);
 8001a24:	a901      	add	r1, sp, #4
 8001a26:	0020      	movs	r0, r4
 8001a28:	f000 f9a5 	bl	8001d76 <list_remove_tail>
    list_insert_head(dest_list, tmp_node);
 8001a2c:	9901      	ldr	r1, [sp, #4]
 8001a2e:	4802      	ldr	r0, [pc, #8]	; (8001a38 <move_list.constprop.0+0x24>)
 8001a30:	f000 f96c 	bl	8001d0c <list_insert_head>
 8001a34:	e7f0      	b.n	8001a18 <move_list.constprop.0+0x4>
 8001a36:	46c0      	nop			; (mov r8, r8)
 8001a38:	20000480 	.word	0x20000480

08001a3c <hci_init>:
}

/********************** HCI Transport layer functions *****************************/

void hci_init(void(* UserEvtRx)(void* pData), void* pConf)
{
 8001a3c:	b570      	push	{r4, r5, r6, lr}
  uint8_t index;
  
  if(UserEvtRx != NULL)
 8001a3e:	2800      	cmp	r0, #0
 8001a40:	d001      	beq.n	8001a46 <hci_init+0xa>
  {
    hciContext.UserEvtRx = UserEvtRx;
 8001a42:	4b10      	ldr	r3, [pc, #64]	; (8001a84 <hci_init+0x48>)
 8001a44:	61d8      	str	r0, [r3, #28]
  }
  
  /* Initialize TL BLE layer */
  hci_tl_lowlevel_init();
 8001a46:	f000 faa7 	bl	8001f98 <hci_tl_lowlevel_init>
  
  /* Initialize list heads of ready and free hci data packet queues */
  list_init_head(&hciReadPktPool);
 8001a4a:	4d0f      	ldr	r5, [pc, #60]	; (8001a88 <hci_init+0x4c>)
 8001a4c:	0028      	movs	r0, r5
 8001a4e:	f000 f94f 	bl	8001cf0 <list_init_head>
  list_init_head(&hciReadPktRxQueue);
 8001a52:	480e      	ldr	r0, [pc, #56]	; (8001a8c <hci_init+0x50>)
 8001a54:	f000 f94c 	bl	8001cf0 <list_init_head>
 8001a58:	23af      	movs	r3, #175	; 0xaf
 8001a5a:	4c0d      	ldr	r4, [pc, #52]	; (8001a90 <hci_init+0x54>)
 8001a5c:	009b      	lsls	r3, r3, #2
 8001a5e:	18e6      	adds	r6, r4, r3
  
  /* Initialize the queue of free hci data packets */
  for (index = 0; index < HCI_READ_PACKET_NUM_MAX; index++)
  {
    list_insert_tail(&hciReadPktPool, (tListNode *)&hciReadPacketBuffer[index]);
 8001a60:	0021      	movs	r1, r4
 8001a62:	0028      	movs	r0, r5
 8001a64:	348c      	adds	r4, #140	; 0x8c
 8001a66:	f000 f95d 	bl	8001d24 <list_insert_tail>
  for (index = 0; index < HCI_READ_PACKET_NUM_MAX; index++)
 8001a6a:	42b4      	cmp	r4, r6
 8001a6c:	d1f8      	bne.n	8001a60 <hci_init+0x24>
  } 
  
  /* Initialize low level driver */
  if (hciContext.io.Init)  hciContext.io.Init(NULL);
 8001a6e:	4c05      	ldr	r4, [pc, #20]	; (8001a84 <hci_init+0x48>)
 8001a70:	6823      	ldr	r3, [r4, #0]
 8001a72:	2b00      	cmp	r3, #0
 8001a74:	d001      	beq.n	8001a7a <hci_init+0x3e>
 8001a76:	2000      	movs	r0, #0
 8001a78:	4798      	blx	r3
  if (hciContext.io.Reset) hciContext.io.Reset();
 8001a7a:	68a3      	ldr	r3, [r4, #8]
 8001a7c:	2b00      	cmp	r3, #0
 8001a7e:	d000      	beq.n	8001a82 <hci_init+0x46>
 8001a80:	4798      	blx	r3
}
 8001a82:	bd70      	pop	{r4, r5, r6, pc}
 8001a84:	20000088 	.word	0x20000088
 8001a88:	20000478 	.word	0x20000478
 8001a8c:	20000480 	.word	0x20000480
 8001a90:	200000a8 	.word	0x200000a8

08001a94 <hci_register_io_bus>:

void hci_register_io_bus(tHciIO* fops)
{
  /* Register bus function */
  hciContext.io.Init    = fops->Init; 
 8001a94:	4b05      	ldr	r3, [pc, #20]	; (8001aac <hci_register_io_bus+0x18>)
 8001a96:	6802      	ldr	r2, [r0, #0]
 8001a98:	601a      	str	r2, [r3, #0]
  hciContext.io.Receive = fops->Receive;  
 8001a9a:	68c2      	ldr	r2, [r0, #12]
 8001a9c:	60da      	str	r2, [r3, #12]
  hciContext.io.Send    = fops->Send;
 8001a9e:	6902      	ldr	r2, [r0, #16]
 8001aa0:	611a      	str	r2, [r3, #16]
  hciContext.io.GetTick = fops->GetTick;
 8001aa2:	6982      	ldr	r2, [r0, #24]
 8001aa4:	619a      	str	r2, [r3, #24]
  hciContext.io.Reset   = fops->Reset;    
 8001aa6:	6882      	ldr	r2, [r0, #8]
 8001aa8:	609a      	str	r2, [r3, #8]
}
 8001aaa:	4770      	bx	lr
 8001aac:	20000088 	.word	0x20000088

08001ab0 <hci_send_req>:

int hci_send_req(struct hci_request* r, BOOL async)
{
 8001ab0:	b5f0      	push	{r4, r5, r6, r7, lr}
  uint8_t *ptr;
  uint16_t opcode = htobs(cmd_opcode_pack(r->ogf, r->ocf));
 8001ab2:	8843      	ldrh	r3, [r0, #2]
{
 8001ab4:	b0a7      	sub	sp, #156	; 0x9c
  uint16_t opcode = htobs(cmd_opcode_pack(r->ogf, r->ocf));
 8001ab6:	9300      	str	r3, [sp, #0]
 8001ab8:	8803      	ldrh	r3, [r0, #0]
{
 8001aba:	0004      	movs	r4, r0
  uint16_t opcode = htobs(cmd_opcode_pack(r->ogf, r->ocf));
 8001abc:	9301      	str	r3, [sp, #4]
  hci_event_pckt *event_pckt;
  hci_uart_pckt *hci_hdr;

  tHciDataPacket * hciReadPacket = NULL;
 8001abe:	2300      	movs	r3, #0
  tListNode hciTempQueue;
  
  list_init_head(&hciTempQueue);
 8001ac0:	a804      	add	r0, sp, #16
{
 8001ac2:	000f      	movs	r7, r1
  tHciDataPacket * hciReadPacket = NULL;
 8001ac4:	9303      	str	r3, [sp, #12]
  list_init_head(&hciTempQueue);
 8001ac6:	f000 f913 	bl	8001cf0 <list_init_head>
  while(list_get_size(&hciReadPktPool) < HCI_READ_PACKET_NUM_MAX/2){
 8001aca:	4d5d      	ldr	r5, [pc, #372]	; (8001c40 <hci_send_req+0x190>)
 8001acc:	0028      	movs	r0, r5
 8001ace:	f000 f964 	bl	8001d9a <list_get_size>
 8001ad2:	2801      	cmp	r0, #1
 8001ad4:	dd5b      	ble.n	8001b8e <hci_send_req+0xde>
  hc.opcode = htobs(cmd_opcode_pack(ogf, ocf));
 8001ad6:	8863      	ldrh	r3, [r4, #2]
 8001ad8:	8822      	ldrh	r2, [r4, #0]
 8001ada:	059b      	lsls	r3, r3, #22
 8001adc:	0292      	lsls	r2, r2, #10
 8001ade:	0d9b      	lsrs	r3, r3, #22
 8001ae0:	4313      	orrs	r3, r2
  payload[0] = HCI_COMMAND_PKT;
 8001ae2:	2201      	movs	r2, #1
 8001ae4:	ae06      	add	r6, sp, #24
 8001ae6:	7032      	strb	r2, [r6, #0]
  BLUENRG_memcpy(payload + 1, &hc, sizeof(hc));
 8001ae8:	a902      	add	r1, sp, #8
 8001aea:	3210      	adds	r2, #16
 8001aec:	1852      	adds	r2, r2, r1

  free_event_list();
  
  send_cmd(r->ogf, r->ocf, r->clen, r->cparam);
 8001aee:	7b25      	ldrb	r5, [r4, #12]
  hc.opcode = htobs(cmd_opcode_pack(ogf, ocf));
 8001af0:	b29b      	uxth	r3, r3
  BLUENRG_memcpy(payload + 1, &hc, sizeof(hc));
 8001af2:	7013      	strb	r3, [r2, #0]
 8001af4:	0a1b      	lsrs	r3, r3, #8
 8001af6:	7053      	strb	r3, [r2, #1]
  BLUENRG_memcpy(payload + HCI_HDR_SIZE + HCI_COMMAND_HDR_SIZE, param, plen);
 8001af8:	68a1      	ldr	r1, [r4, #8]
  BLUENRG_memcpy(payload + 1, &hc, sizeof(hc));
 8001afa:	70f5      	strb	r5, [r6, #3]
  BLUENRG_memcpy(payload + HCI_HDR_SIZE + HCI_COMMAND_HDR_SIZE, param, plen);
 8001afc:	002a      	movs	r2, r5
 8001afe:	a807      	add	r0, sp, #28
 8001b00:	f000 ffb6 	bl	8002a70 <memcpy>
  if (hciContext.io.Send)
 8001b04:	4b4f      	ldr	r3, [pc, #316]	; (8001c44 <hci_send_req+0x194>)
 8001b06:	691b      	ldr	r3, [r3, #16]
 8001b08:	2b00      	cmp	r3, #0
 8001b0a:	d002      	beq.n	8001b12 <hci_send_req+0x62>
    hciContext.io.Send (payload, HCI_HDR_SIZE + HCI_COMMAND_HDR_SIZE + plen);
 8001b0c:	1d29      	adds	r1, r5, #4
 8001b0e:	0030      	movs	r0, r6
 8001b10:	4798      	blx	r3
  
  if (async)
  {
    return 0;
 8001b12:	2000      	movs	r0, #0
  if (async)
 8001b14:	4287      	cmp	r7, r0
 8001b16:	d17e      	bne.n	8001c16 <hci_send_req+0x166>
  uint16_t opcode = htobs(cmd_opcode_pack(r->ogf, r->ocf));
 8001b18:	9b00      	ldr	r3, [sp, #0]
 8001b1a:	059d      	lsls	r5, r3, #22
 8001b1c:	9b01      	ldr	r3, [sp, #4]
 8001b1e:	0dad      	lsrs	r5, r5, #22
 8001b20:	029b      	lsls	r3, r3, #10
 8001b22:	431d      	orrs	r5, r3
 8001b24:	b2ad      	uxth	r5, r5
    evt_cmd_complete  *cc;
    evt_cmd_status    *cs;
    evt_le_meta_event *me;
    uint32_t len;
    
    uint32_t tickstart = HAL_GetTick();
 8001b26:	f7fe fce3 	bl	80004f0 <HAL_GetTick>
 8001b2a:	0007      	movs	r7, r0
      
    while (1)
    {
      if ((HAL_GetTick() - tickstart) > HCI_DEFAULT_TIMEOUT_MS)
 8001b2c:	f7fe fce0 	bl	80004f0 <HAL_GetTick>
 8001b30:	23fa      	movs	r3, #250	; 0xfa
 8001b32:	1bc0      	subs	r0, r0, r7
 8001b34:	009b      	lsls	r3, r3, #2
 8001b36:	4298      	cmp	r0, r3
 8001b38:	d851      	bhi.n	8001bde <hci_send_req+0x12e>
      {
        goto failed;
      }
      
      if (!list_is_empty(&hciReadPktRxQueue)) 
 8001b3a:	4e43      	ldr	r6, [pc, #268]	; (8001c48 <hci_send_req+0x198>)
 8001b3c:	0030      	movs	r0, r6
 8001b3e:	f000 f8da 	bl	8001cf6 <list_is_empty>
 8001b42:	2800      	cmp	r0, #0
 8001b44:	d1f2      	bne.n	8001b2c <hci_send_req+0x7c>
        break;
      }
    }
    
    /* Extract packet from HCI event queue. */
    list_remove_head(&hciReadPktRxQueue, (tListNode **)&hciReadPacket);    
 8001b46:	a903      	add	r1, sp, #12
 8001b48:	0030      	movs	r0, r6
 8001b4a:	f000 f902 	bl	8001d52 <list_remove_head>
    
    hci_hdr = (void *)hciReadPacket->dataBuff;
 8001b4e:	9b03      	ldr	r3, [sp, #12]

    if (hci_hdr->type == HCI_EVENT_PKT)
 8001b50:	7a1a      	ldrb	r2, [r3, #8]
 8001b52:	2a04      	cmp	r2, #4
 8001b54:	d109      	bne.n	8001b6a <hci_send_req+0xba>
    {
      event_pckt = (void *)(hci_hdr->data);
    
      ptr = hciReadPacket->dataBuff + (1 + HCI_EVENT_HDR_SIZE);
      len = hciReadPacket->data_len - (1 + HCI_EVENT_HDR_SIZE);
 8001b56:	001a      	movs	r2, r3
 8001b58:	3288      	adds	r2, #136	; 0x88
 8001b5a:	7812      	ldrb	r2, [r2, #0]
    
      switch (event_pckt->evt) 
 8001b5c:	7a59      	ldrb	r1, [r3, #9]
      len = hciReadPacket->data_len - (1 + HCI_EVENT_HDR_SIZE);
 8001b5e:	1ed0      	subs	r0, r2, #3
      switch (event_pckt->evt) 
 8001b60:	290f      	cmp	r1, #15
 8001b62:	d02e      	beq.n	8001bc2 <hci_send_req+0x112>
 8001b64:	d81c      	bhi.n	8001ba0 <hci_send_req+0xf0>
 8001b66:	290e      	cmp	r1, #14
 8001b68:	d057      	beq.n	8001c1a <hci_send_req+0x16a>
    
    /* If there are no more packets to be processed, be sure there is at list one
       packet in the pool to process the expected event.
       If no free packets are available, discard the processed event and insert it
       into the pool. */
    if (list_is_empty(&hciReadPktPool) && list_is_empty(&hciReadPktRxQueue)) {
 8001b6a:	4f35      	ldr	r7, [pc, #212]	; (8001c40 <hci_send_req+0x190>)
 8001b6c:	0038      	movs	r0, r7
 8001b6e:	f000 f8c2 	bl	8001cf6 <list_is_empty>
 8001b72:	2800      	cmp	r0, #0
 8001b74:	d061      	beq.n	8001c3a <hci_send_req+0x18a>
 8001b76:	0030      	movs	r0, r6
 8001b78:	f000 f8bd 	bl	8001cf6 <list_is_empty>
 8001b7c:	2800      	cmp	r0, #0
 8001b7e:	d05c      	beq.n	8001c3a <hci_send_req+0x18a>
      list_insert_tail(&hciReadPktPool, (tListNode *)hciReadPacket);
 8001b80:	0038      	movs	r0, r7
 8001b82:	9903      	ldr	r1, [sp, #12]
    else {
      /* Insert the packet in a different queue. These packets will be
      inserted back in the main queue just before exiting from send_req(), so that
      these events can be processed by the application.
    */
    list_insert_tail(&hciTempQueue, (tListNode *)hciReadPacket);
 8001b84:	f000 f8ce 	bl	8001d24 <list_insert_tail>
      hciReadPacket=NULL;
 8001b88:	2300      	movs	r3, #0
 8001b8a:	9303      	str	r3, [sp, #12]
 8001b8c:	e7cb      	b.n	8001b26 <hci_send_req+0x76>
    list_remove_head(&hciReadPktRxQueue, (tListNode **)&pckt);    
 8001b8e:	a906      	add	r1, sp, #24
 8001b90:	482d      	ldr	r0, [pc, #180]	; (8001c48 <hci_send_req+0x198>)
 8001b92:	f000 f8de 	bl	8001d52 <list_remove_head>
    list_insert_tail(&hciReadPktPool, (tListNode *)pckt);
 8001b96:	9906      	ldr	r1, [sp, #24]
 8001b98:	0028      	movs	r0, r5
 8001b9a:	f000 f8c3 	bl	8001d24 <list_insert_tail>
 8001b9e:	e794      	b.n	8001aca <hci_send_req+0x1a>
      switch (event_pckt->evt) 
 8001ba0:	2910      	cmp	r1, #16
 8001ba2:	d01c      	beq.n	8001bde <hci_send_req+0x12e>
 8001ba4:	293e      	cmp	r1, #62	; 0x3e
 8001ba6:	d1e0      	bne.n	8001b6a <hci_send_req+0xba>
        if (me->subevent != r->event)
 8001ba8:	7ad9      	ldrb	r1, [r3, #11]
 8001baa:	6860      	ldr	r0, [r4, #4]
 8001bac:	4281      	cmp	r1, r0
 8001bae:	d1dc      	bne.n	8001b6a <hci_send_req+0xba>
        r->rlen = MIN(len, r->rlen);
 8001bb0:	6961      	ldr	r1, [r4, #20]
 8001bb2:	3a04      	subs	r2, #4
 8001bb4:	428a      	cmp	r2, r1
 8001bb6:	d900      	bls.n	8001bba <hci_send_req+0x10a>
 8001bb8:	000a      	movs	r2, r1
 8001bba:	6162      	str	r2, [r4, #20]
        BLUENRG_memcpy(r->rparam, me->data, r->rlen);
 8001bbc:	6920      	ldr	r0, [r4, #16]
 8001bbe:	330c      	adds	r3, #12
 8001bc0:	e039      	b.n	8001c36 <hci_send_req+0x186>
        if (cs->opcode != opcode)
 8001bc2:	0019      	movs	r1, r3
 8001bc4:	310b      	adds	r1, #11
 8001bc6:	78ca      	ldrb	r2, [r1, #3]
 8001bc8:	788f      	ldrb	r7, [r1, #2]
 8001bca:	0212      	lsls	r2, r2, #8
 8001bcc:	433a      	orrs	r2, r7
 8001bce:	4295      	cmp	r5, r2
 8001bd0:	d105      	bne.n	8001bde <hci_send_req+0x12e>
        if (r->event != EVT_CMD_STATUS) {
 8001bd2:	6862      	ldr	r2, [r4, #4]
 8001bd4:	2a0f      	cmp	r2, #15
 8001bd6:	d00e      	beq.n	8001bf6 <hci_send_req+0x146>
          if (cs->status) {
 8001bd8:	7adb      	ldrb	r3, [r3, #11]
 8001bda:	2b00      	cmp	r3, #0
 8001bdc:	d0c5      	beq.n	8001b6a <hci_send_req+0xba>
    }
  }
  
failed: 
  if (hciReadPacket!=NULL) {
 8001bde:	9903      	ldr	r1, [sp, #12]
 8001be0:	2900      	cmp	r1, #0
 8001be2:	d002      	beq.n	8001bea <hci_send_req+0x13a>
    list_insert_head(&hciReadPktPool, (tListNode *)hciReadPacket);
 8001be4:	4816      	ldr	r0, [pc, #88]	; (8001c40 <hci_send_req+0x190>)
 8001be6:	f000 f891 	bl	8001d0c <list_insert_head>
  }
  move_list(&hciReadPktRxQueue, &hciTempQueue);  
 8001bea:	a804      	add	r0, sp, #16
 8001bec:	f7ff ff12 	bl	8001a14 <move_list.constprop.0>
  return -1;
 8001bf0:	2001      	movs	r0, #1
 8001bf2:	4240      	negs	r0, r0
 8001bf4:	e00f      	b.n	8001c16 <hci_send_req+0x166>
        r->rlen = MIN(len, r->rlen);
 8001bf6:	6962      	ldr	r2, [r4, #20]
 8001bf8:	4282      	cmp	r2, r0
 8001bfa:	d900      	bls.n	8001bfe <hci_send_req+0x14e>
 8001bfc:	0002      	movs	r2, r0
        BLUENRG_memcpy(r->rparam, ptr, r->rlen);
 8001bfe:	6920      	ldr	r0, [r4, #16]
        r->rlen = MIN(len, r->rlen);
 8001c00:	6162      	str	r2, [r4, #20]
        BLUENRG_memcpy(r->rparam, me->data, r->rlen);
 8001c02:	f000 ff35 	bl	8002a70 <memcpy>
  
done:
  /* Insert the packet back into the pool.*/
  list_insert_head(&hciReadPktPool, (tListNode *)hciReadPacket); 
 8001c06:	9903      	ldr	r1, [sp, #12]
 8001c08:	480d      	ldr	r0, [pc, #52]	; (8001c40 <hci_send_req+0x190>)
 8001c0a:	f000 f87f 	bl	8001d0c <list_insert_head>
  move_list(&hciReadPktRxQueue, &hciTempQueue);
 8001c0e:	a804      	add	r0, sp, #16
 8001c10:	f7ff ff00 	bl	8001a14 <move_list.constprop.0>
  return 0;
 8001c14:	2000      	movs	r0, #0
}
 8001c16:	b027      	add	sp, #156	; 0x9c
 8001c18:	bdf0      	pop	{r4, r5, r6, r7, pc}
        if (cc->opcode != opcode)
 8001c1a:	7b59      	ldrb	r1, [r3, #13]
 8001c1c:	7b1e      	ldrb	r6, [r3, #12]
 8001c1e:	0209      	lsls	r1, r1, #8
 8001c20:	4331      	orrs	r1, r6
 8001c22:	428d      	cmp	r5, r1
 8001c24:	d1db      	bne.n	8001bde <hci_send_req+0x12e>
        r->rlen = MIN(len, r->rlen);
 8001c26:	6961      	ldr	r1, [r4, #20]
 8001c28:	3a06      	subs	r2, #6
 8001c2a:	428a      	cmp	r2, r1
 8001c2c:	d900      	bls.n	8001c30 <hci_send_req+0x180>
 8001c2e:	000a      	movs	r2, r1
        BLUENRG_memcpy(r->rparam, ptr, r->rlen);
 8001c30:	6920      	ldr	r0, [r4, #16]
        r->rlen = MIN(len, r->rlen);
 8001c32:	6162      	str	r2, [r4, #20]
        BLUENRG_memcpy(r->rparam, ptr, r->rlen);
 8001c34:	330e      	adds	r3, #14
        BLUENRG_memcpy(r->rparam, me->data, r->rlen);
 8001c36:	0019      	movs	r1, r3
 8001c38:	e7e3      	b.n	8001c02 <hci_send_req+0x152>
    list_insert_tail(&hciTempQueue, (tListNode *)hciReadPacket);
 8001c3a:	9903      	ldr	r1, [sp, #12]
 8001c3c:	a804      	add	r0, sp, #16
 8001c3e:	e7a1      	b.n	8001b84 <hci_send_req+0xd4>
 8001c40:	20000478 	.word	0x20000478
 8001c44:	20000088 	.word	0x20000088
 8001c48:	20000480 	.word	0x20000480

08001c4c <hci_user_evt_proc>:

void hci_user_evt_proc(void)
{
  tHciDataPacket * hciReadPacket = NULL;
 8001c4c:	2300      	movs	r3, #0
{
 8001c4e:	b513      	push	{r0, r1, r4, lr}
  tHciDataPacket * hciReadPacket = NULL;
 8001c50:	9301      	str	r3, [sp, #4]
     
  /* process any pending events read */
  while (list_is_empty(&hciReadPktRxQueue) == FALSE)
 8001c52:	4c0b      	ldr	r4, [pc, #44]	; (8001c80 <hci_user_evt_proc+0x34>)
 8001c54:	0020      	movs	r0, r4
 8001c56:	f000 f84e 	bl	8001cf6 <list_is_empty>
 8001c5a:	2800      	cmp	r0, #0
 8001c5c:	d000      	beq.n	8001c60 <hci_user_evt_proc+0x14>
    {
      hciContext.UserEvtRx(hciReadPacket->dataBuff);
    }
    list_insert_tail(&hciReadPktPool, (tListNode *)hciReadPacket);
  }
}
 8001c5e:	bd13      	pop	{r0, r1, r4, pc}
    list_remove_head (&hciReadPktRxQueue, (tListNode **)&hciReadPacket);
 8001c60:	a901      	add	r1, sp, #4
 8001c62:	0020      	movs	r0, r4
 8001c64:	f000 f875 	bl	8001d52 <list_remove_head>
    if (hciContext.UserEvtRx != NULL)
 8001c68:	4b06      	ldr	r3, [pc, #24]	; (8001c84 <hci_user_evt_proc+0x38>)
 8001c6a:	69db      	ldr	r3, [r3, #28]
 8001c6c:	2b00      	cmp	r3, #0
 8001c6e:	d002      	beq.n	8001c76 <hci_user_evt_proc+0x2a>
      hciContext.UserEvtRx(hciReadPacket->dataBuff);
 8001c70:	9801      	ldr	r0, [sp, #4]
 8001c72:	3008      	adds	r0, #8
 8001c74:	4798      	blx	r3
    list_insert_tail(&hciReadPktPool, (tListNode *)hciReadPacket);
 8001c76:	9901      	ldr	r1, [sp, #4]
 8001c78:	4803      	ldr	r0, [pc, #12]	; (8001c88 <hci_user_evt_proc+0x3c>)
 8001c7a:	f000 f853 	bl	8001d24 <list_insert_tail>
 8001c7e:	e7e8      	b.n	8001c52 <hci_user_evt_proc+0x6>
 8001c80:	20000480 	.word	0x20000480
 8001c84:	20000088 	.word	0x20000088
 8001c88:	20000478 	.word	0x20000478

08001c8c <hci_notify_asynch_evt>:

void hci_notify_asynch_evt(void* pdata)
{
  tHciDataPacket * hciReadPacket = NULL;
 8001c8c:	2300      	movs	r3, #0
{
 8001c8e:	b513      	push	{r0, r1, r4, lr}
  uint8_t data_len;
  
  if (list_is_empty (&hciReadPktPool) == FALSE)
 8001c90:	4c14      	ldr	r4, [pc, #80]	; (8001ce4 <hci_notify_asynch_evt+0x58>)
  tHciDataPacket * hciReadPacket = NULL;
 8001c92:	9301      	str	r3, [sp, #4]
  if (list_is_empty (&hciReadPktPool) == FALSE)
 8001c94:	0020      	movs	r0, r4
 8001c96:	f000 f82e 	bl	8001cf6 <list_is_empty>
 8001c9a:	2800      	cmp	r0, #0
 8001c9c:	d11d      	bne.n	8001cda <hci_notify_asynch_evt+0x4e>
  {
    /* Queuing a packet to read */
    list_remove_head (&hciReadPktPool, (tListNode **)&hciReadPacket);
 8001c9e:	a901      	add	r1, sp, #4
 8001ca0:	0020      	movs	r0, r4
 8001ca2:	f000 f856 	bl	8001d52 <list_remove_head>
    
    if (hciContext.io.Receive)
 8001ca6:	4b10      	ldr	r3, [pc, #64]	; (8001ce8 <hci_notify_asynch_evt+0x5c>)
 8001ca8:	68db      	ldr	r3, [r3, #12]
 8001caa:	2b00      	cmp	r3, #0
 8001cac:	d015      	beq.n	8001cda <hci_notify_asynch_evt+0x4e>
    {
      data_len = hciContext.io.Receive(hciReadPacket->dataBuff, HCI_READ_PACKET_SIZE);
 8001cae:	9801      	ldr	r0, [sp, #4]
 8001cb0:	2180      	movs	r1, #128	; 0x80
 8001cb2:	3008      	adds	r0, #8
 8001cb4:	4798      	blx	r3
 8001cb6:	b2c3      	uxtb	r3, r0
      if (data_len > 0)
      {                    
        hciReadPacket->data_len = data_len;
 8001cb8:	9901      	ldr	r1, [sp, #4]
      if (data_len > 0)
 8001cba:	2b00      	cmp	r3, #0
 8001cbc:	d00e      	beq.n	8001cdc <hci_notify_asynch_evt+0x50>
        hciReadPacket->data_len = data_len;
 8001cbe:	000a      	movs	r2, r1
 8001cc0:	3288      	adds	r2, #136	; 0x88
 8001cc2:	7013      	strb	r3, [r2, #0]
  if (hci_pckt[HCI_PCK_TYPE_OFFSET] != HCI_EVENT_PKT)
 8001cc4:	7a0b      	ldrb	r3, [r1, #8]
 8001cc6:	2b04      	cmp	r3, #4
 8001cc8:	d108      	bne.n	8001cdc <hci_notify_asynch_evt+0x50>
  if (hci_pckt[EVENT_PARAMETER_TOT_LEN_OFFSET] != hciReadPacket->data_len - (1+HCI_EVENT_HDR_SIZE))
 8001cca:	b2c0      	uxtb	r0, r0
 8001ccc:	7a8b      	ldrb	r3, [r1, #10]
 8001cce:	3803      	subs	r0, #3
 8001cd0:	4283      	cmp	r3, r0
 8001cd2:	d103      	bne.n	8001cdc <hci_notify_asynch_evt+0x50>
        if (verify_packet(hciReadPacket) == 0)
          list_insert_tail(&hciReadPktRxQueue, (tListNode *)hciReadPacket);
 8001cd4:	4805      	ldr	r0, [pc, #20]	; (8001cec <hci_notify_asynch_evt+0x60>)
 8001cd6:	f000 f825 	bl	8001d24 <list_insert_tail>
        /* Insert the packet back into the pool*/
        list_insert_head(&hciReadPktPool, (tListNode *)hciReadPacket);
      }
    }
  }
}
 8001cda:	bd13      	pop	{r0, r1, r4, pc}
          list_insert_head(&hciReadPktPool, (tListNode *)hciReadPacket);          
 8001cdc:	0020      	movs	r0, r4
 8001cde:	f000 f815 	bl	8001d0c <list_insert_head>
 8001ce2:	e7fa      	b.n	8001cda <hci_notify_asynch_evt+0x4e>
 8001ce4:	20000478 	.word	0x20000478
 8001ce8:	20000088 	.word	0x20000088
 8001cec:	20000480 	.word	0x20000480

08001cf0 <list_init_head>:
/******************************************************************************
 * Function Definitions 
******************************************************************************/
void list_init_head (tListNode * listHead)
{
  listHead->next = listHead;
 8001cf0:	6000      	str	r0, [r0, #0]
  listHead->prev = listHead;	
 8001cf2:	6040      	str	r0, [r0, #4]
}
 8001cf4:	4770      	bx	lr

08001cf6 <list_is_empty>:
 */
__attribute__( ( always_inline ) ) __STATIC_INLINE uint32_t __get_PRIMASK(void)
{
  uint32_t result;

  __ASM volatile ("MRS %0, primask" : "=r" (result) );
 8001cf6:	f3ef 8310 	mrs	r3, PRIMASK
  __ASM volatile ("cpsid i" : : : "memory");
 8001cfa:	b672      	cpsid	i
  
  uint32_t uwPRIMASK_Bit;
  uwPRIMASK_Bit = __get_PRIMASK();  /**< backup PRIMASK bit */
  __disable_irq();                  /**< Disable all interrupts by setting PRIMASK bit on Cortex*/
   
  if(listHead->next == listHead)
 8001cfc:	6802      	ldr	r2, [r0, #0]
 8001cfe:	1a10      	subs	r0, r2, r0
 8001d00:	4241      	negs	r1, r0
 8001d02:	4141      	adcs	r1, r0
  {
    return_value = 1;
 8001d04:	b2c8      	uxtb	r0, r1
  \details Assigns the given value to the Priority Mask Register.
  \param [in]    priMask  Priority Mask
 */
__attribute__( ( always_inline ) ) __STATIC_INLINE void __set_PRIMASK(uint32_t priMask)
{
  __ASM volatile ("MSR primask, %0" : : "r" (priMask) : "memory");
 8001d06:	f383 8810 	msr	PRIMASK, r3
  }
  
  __set_PRIMASK(uwPRIMASK_Bit);     /**< Restore PRIMASK bit*/
  
  return return_value;
}
 8001d0a:	4770      	bx	lr

08001d0c <list_insert_head>:
  __ASM volatile ("MRS %0, primask" : "=r" (result) );
 8001d0c:	f3ef 8310 	mrs	r3, PRIMASK
  __ASM volatile ("cpsid i" : : : "memory");
 8001d10:	b672      	cpsid	i
{
  uint32_t uwPRIMASK_Bit;
  uwPRIMASK_Bit = __get_PRIMASK();  /**< backup PRIMASK bit */
  __disable_irq();                  /**< Disable all interrupts by setting PRIMASK bit on Cortex*/
  
  node->next = listHead->next;
 8001d12:	6802      	ldr	r2, [r0, #0]
  node->prev = listHead;
 8001d14:	6048      	str	r0, [r1, #4]
  node->next = listHead->next;
 8001d16:	600a      	str	r2, [r1, #0]
  listHead->next = node;
 8001d18:	6001      	str	r1, [r0, #0]
  (node->next)->prev = node;
 8001d1a:	680a      	ldr	r2, [r1, #0]
 8001d1c:	6051      	str	r1, [r2, #4]
  __ASM volatile ("MSR primask, %0" : : "r" (priMask) : "memory");
 8001d1e:	f383 8810 	msr	PRIMASK, r3
  
  __set_PRIMASK(uwPRIMASK_Bit);     /**< Restore PRIMASK bit*/
}
 8001d22:	4770      	bx	lr

08001d24 <list_insert_tail>:
  __ASM volatile ("MRS %0, primask" : "=r" (result) );
 8001d24:	f3ef 8310 	mrs	r3, PRIMASK
  __ASM volatile ("cpsid i" : : : "memory");
 8001d28:	b672      	cpsid	i
  uint32_t uwPRIMASK_Bit;
  uwPRIMASK_Bit = __get_PRIMASK();  /**< backup PRIMASK bit */
  __disable_irq();                  /**< Disable all interrupts by setting PRIMASK bit on Cortex*/
  
  node->next = listHead;
  node->prev = listHead->prev;
 8001d2a:	6842      	ldr	r2, [r0, #4]
  node->next = listHead;
 8001d2c:	6008      	str	r0, [r1, #0]
  node->prev = listHead->prev;
 8001d2e:	604a      	str	r2, [r1, #4]
  listHead->prev = node;
 8001d30:	6041      	str	r1, [r0, #4]
  (node->prev)->next = node;
 8001d32:	684a      	ldr	r2, [r1, #4]
 8001d34:	6011      	str	r1, [r2, #0]
  __ASM volatile ("MSR primask, %0" : : "r" (priMask) : "memory");
 8001d36:	f383 8810 	msr	PRIMASK, r3
  
  __set_PRIMASK(uwPRIMASK_Bit);     /**< Restore PRIMASK bit*/
}
 8001d3a:	4770      	bx	lr

08001d3c <list_remove_node>:
  __ASM volatile ("MRS %0, primask" : "=r" (result) );
 8001d3c:	f3ef 8310 	mrs	r3, PRIMASK
  __ASM volatile ("cpsid i" : : : "memory");
 8001d40:	b672      	cpsid	i
{
  uint32_t uwPRIMASK_Bit;
  uwPRIMASK_Bit = __get_PRIMASK();  /**< backup PRIMASK bit */
  __disable_irq();                  /**< Disable all interrupts by setting PRIMASK bit on Cortex*/
  
  (node->prev)->next = node->next;
 8001d42:	6801      	ldr	r1, [r0, #0]
 8001d44:	6842      	ldr	r2, [r0, #4]
 8001d46:	6011      	str	r1, [r2, #0]
  (node->next)->prev = node->prev;
 8001d48:	6801      	ldr	r1, [r0, #0]
 8001d4a:	604a      	str	r2, [r1, #4]
  __ASM volatile ("MSR primask, %0" : : "r" (priMask) : "memory");
 8001d4c:	f383 8810 	msr	PRIMASK, r3
  
  __set_PRIMASK(uwPRIMASK_Bit);     /**< Restore PRIMASK bit*/
}
 8001d50:	4770      	bx	lr

08001d52 <list_remove_head>:

void list_remove_head (tListNode * listHead, tListNode ** node )
{
 8001d52:	b570      	push	{r4, r5, r6, lr}
 8001d54:	000d      	movs	r5, r1
  __ASM volatile ("MRS %0, primask" : "=r" (result) );
 8001d56:	f3ef 8410 	mrs	r4, PRIMASK
  __ASM volatile ("cpsid i" : : : "memory");
 8001d5a:	b672      	cpsid	i
  uint32_t uwPRIMASK_Bit;
  uwPRIMASK_Bit = __get_PRIMASK();  /**< backup PRIMASK bit */
  __disable_irq();                  /**< Disable all interrupts by setting PRIMASK bit on Cortex*/
  
  *node = listHead->next;
 8001d5c:	6803      	ldr	r3, [r0, #0]
 8001d5e:	600b      	str	r3, [r1, #0]
  list_remove_node (listHead->next);
 8001d60:	6800      	ldr	r0, [r0, #0]
 8001d62:	f7ff ffeb 	bl	8001d3c <list_remove_node>
  (*node)->next = NULL;
 8001d66:	2300      	movs	r3, #0
 8001d68:	682a      	ldr	r2, [r5, #0]
 8001d6a:	6013      	str	r3, [r2, #0]
  (*node)->prev = NULL;
 8001d6c:	682a      	ldr	r2, [r5, #0]
 8001d6e:	6053      	str	r3, [r2, #4]
  __ASM volatile ("MSR primask, %0" : : "r" (priMask) : "memory");
 8001d70:	f384 8810 	msr	PRIMASK, r4
  
  __set_PRIMASK(uwPRIMASK_Bit);     /**< Restore PRIMASK bit*/
}
 8001d74:	bd70      	pop	{r4, r5, r6, pc}

08001d76 <list_remove_tail>:

void list_remove_tail (tListNode * listHead, tListNode ** node )
{
 8001d76:	b570      	push	{r4, r5, r6, lr}
 8001d78:	000d      	movs	r5, r1
  __ASM volatile ("MRS %0, primask" : "=r" (result) );
 8001d7a:	f3ef 8410 	mrs	r4, PRIMASK
  __ASM volatile ("cpsid i" : : : "memory");
 8001d7e:	b672      	cpsid	i
  uint32_t uwPRIMASK_Bit;
  uwPRIMASK_Bit = __get_PRIMASK();  /**< backup PRIMASK bit */
  __disable_irq();                  /**< Disable all interrupts by setting PRIMASK bit on Cortex*/
  
  *node = listHead->prev;
 8001d80:	6843      	ldr	r3, [r0, #4]
 8001d82:	600b      	str	r3, [r1, #0]
  list_remove_node (listHead->prev);
 8001d84:	6840      	ldr	r0, [r0, #4]
 8001d86:	f7ff ffd9 	bl	8001d3c <list_remove_node>
  (*node)->next = NULL;
 8001d8a:	2300      	movs	r3, #0
 8001d8c:	682a      	ldr	r2, [r5, #0]
 8001d8e:	6013      	str	r3, [r2, #0]
  (*node)->prev = NULL;
 8001d90:	682a      	ldr	r2, [r5, #0]
 8001d92:	6053      	str	r3, [r2, #4]
  __ASM volatile ("MSR primask, %0" : : "r" (priMask) : "memory");
 8001d94:	f384 8810 	msr	PRIMASK, r4
  
  __set_PRIMASK(uwPRIMASK_Bit);     /**< Restore PRIMASK bit*/
}
 8001d98:	bd70      	pop	{r4, r5, r6, pc}

08001d9a <list_get_size>:
  __ASM volatile ("MRS %0, primask" : "=r" (result) );
 8001d9a:	f3ef 8110 	mrs	r1, PRIMASK
  __ASM volatile ("cpsid i" : : : "memory");
 8001d9e:	b672      	cpsid	i
  __set_PRIMASK(uwPRIMASK_Bit);     /**< Restore PRIMASK bit*/
}

int list_get_size (tListNode * listHead)
{
  int size = 0;
 8001da0:	2300      	movs	r3, #0

  uint32_t uwPRIMASK_Bit;
  uwPRIMASK_Bit = __get_PRIMASK();  /**< backup PRIMASK bit */
  __disable_irq();                  /**< Disable all interrupts by setting PRIMASK bit on Cortex*/

  temp = listHead->next;
 8001da2:	6802      	ldr	r2, [r0, #0]
  while (temp != listHead)
 8001da4:	4282      	cmp	r2, r0
 8001da6:	d103      	bne.n	8001db0 <list_get_size+0x16>
  __ASM volatile ("MSR primask, %0" : : "r" (priMask) : "memory");
 8001da8:	f381 8810 	msr	PRIMASK, r1
  }
  
  __set_PRIMASK(uwPRIMASK_Bit);     /**< Restore PRIMASK bit*/
  
  return (size);
}
 8001dac:	0018      	movs	r0, r3
 8001dae:	4770      	bx	lr
    size++;
 8001db0:	3301      	adds	r3, #1
    temp = temp->next;		
 8001db2:	6812      	ldr	r2, [r2, #0]
 8001db4:	e7f6      	b.n	8001da4 <list_get_size+0xa>
	...

08001db8 <HCI_TL_SPI_Init>:
 *
 * @param  void* Pointer to configuration struct 
 * @retval int32_t Status
 */
int32_t HCI_TL_SPI_Init(void* pConf)
{
 8001db8:	b570      	push	{r4, r5, r6, lr}
  GPIO_InitTypeDef GPIO_InitStruct;
  
  __HAL_RCC_GPIOA_CLK_ENABLE();
 8001dba:	2501      	movs	r5, #1
  
  /*Configure EXTI Line */
  GPIO_InitStruct.Pin = HCI_TL_SPI_EXTI_PIN;
  GPIO_InitStruct.Mode = GPIO_MODE_IT_RISING;
  GPIO_InitStruct.Pull = GPIO_NOPULL;
  HAL_GPIO_Init(HCI_TL_SPI_EXTI_PORT, &GPIO_InitStruct);
 8001dbc:	26a0      	movs	r6, #160	; 0xa0
  GPIO_InitStruct.Pull = GPIO_NOPULL;
 8001dbe:	2400      	movs	r4, #0
  __HAL_RCC_GPIOA_CLK_ENABLE();
 8001dc0:	4b14      	ldr	r3, [pc, #80]	; (8001e14 <HCI_TL_SPI_Init+0x5c>)
{
 8001dc2:	b086      	sub	sp, #24
  __HAL_RCC_GPIOA_CLK_ENABLE();
 8001dc4:	6ada      	ldr	r2, [r3, #44]	; 0x2c
  HAL_GPIO_Init(HCI_TL_SPI_EXTI_PORT, &GPIO_InitStruct);
 8001dc6:	05f6      	lsls	r6, r6, #23
  __HAL_RCC_GPIOA_CLK_ENABLE();
 8001dc8:	432a      	orrs	r2, r5
 8001dca:	62da      	str	r2, [r3, #44]	; 0x2c
 8001dcc:	6adb      	ldr	r3, [r3, #44]	; 0x2c
  HAL_GPIO_Init(HCI_TL_SPI_EXTI_PORT, &GPIO_InitStruct);
 8001dce:	a901      	add	r1, sp, #4
  __HAL_RCC_GPIOA_CLK_ENABLE();
 8001dd0:	402b      	ands	r3, r5
 8001dd2:	9300      	str	r3, [sp, #0]
 8001dd4:	9b00      	ldr	r3, [sp, #0]
  GPIO_InitStruct.Mode = GPIO_MODE_IT_RISING;
 8001dd6:	4b10      	ldr	r3, [pc, #64]	; (8001e18 <HCI_TL_SPI_Init+0x60>)
  HAL_GPIO_Init(HCI_TL_SPI_EXTI_PORT, &GPIO_InitStruct);
 8001dd8:	0030      	movs	r0, r6
  GPIO_InitStruct.Mode = GPIO_MODE_IT_RISING;
 8001dda:	9302      	str	r3, [sp, #8]
  GPIO_InitStruct.Pin = HCI_TL_SPI_EXTI_PIN;
 8001ddc:	9501      	str	r5, [sp, #4]
  GPIO_InitStruct.Pull = GPIO_NOPULL;
 8001dde:	9403      	str	r4, [sp, #12]
  HAL_GPIO_Init(HCI_TL_SPI_EXTI_PORT, &GPIO_InitStruct);
 8001de0:	f7fe fbf0 	bl	80005c4 <HAL_GPIO_Init>
   
  /*Configure CS & RESET Line */
  GPIO_InitStruct.Pin =  HCI_TL_RST_PIN ;
 8001de4:	2380      	movs	r3, #128	; 0x80
  GPIO_InitStruct.Mode = GPIO_MODE_OUTPUT_PP;
  GPIO_InitStruct.Pull = GPIO_NOPULL;
  GPIO_InitStruct.Speed = GPIO_SPEED_FREQ_LOW;
  HAL_GPIO_Init(HCI_TL_RST_PORT, &GPIO_InitStruct);
 8001de6:	a901      	add	r1, sp, #4
  GPIO_InitStruct.Pin =  HCI_TL_RST_PIN ;
 8001de8:	005b      	lsls	r3, r3, #1
  HAL_GPIO_Init(HCI_TL_RST_PORT, &GPIO_InitStruct);
 8001dea:	0030      	movs	r0, r6
  GPIO_InitStruct.Pin =  HCI_TL_RST_PIN ;
 8001dec:	9301      	str	r3, [sp, #4]
  GPIO_InitStruct.Mode = GPIO_MODE_OUTPUT_PP;
 8001dee:	9502      	str	r5, [sp, #8]
  GPIO_InitStruct.Pull = GPIO_NOPULL;
 8001df0:	9403      	str	r4, [sp, #12]
  GPIO_InitStruct.Speed = GPIO_SPEED_FREQ_LOW;
 8001df2:	9404      	str	r4, [sp, #16]
  HAL_GPIO_Init(HCI_TL_RST_PORT, &GPIO_InitStruct);
 8001df4:	f7fe fbe6 	bl	80005c4 <HAL_GPIO_Init>
  
  GPIO_InitStruct.Pin = HCI_TL_SPI_CS_PIN ;
 8001df8:	2302      	movs	r3, #2
  GPIO_InitStruct.Mode = GPIO_MODE_OUTPUT_PP;
  GPIO_InitStruct.Pull = GPIO_NOPULL;
  GPIO_InitStruct.Speed = GPIO_SPEED_FREQ_LOW;
  HAL_GPIO_Init(HCI_TL_SPI_CS_PORT, &GPIO_InitStruct); 
 8001dfa:	a901      	add	r1, sp, #4
 8001dfc:	0030      	movs	r0, r6
  GPIO_InitStruct.Pin = HCI_TL_SPI_CS_PIN ;
 8001dfe:	9301      	str	r3, [sp, #4]
  GPIO_InitStruct.Mode = GPIO_MODE_OUTPUT_PP;
 8001e00:	9502      	str	r5, [sp, #8]
  GPIO_InitStruct.Pull = GPIO_NOPULL;
 8001e02:	9403      	str	r4, [sp, #12]
  GPIO_InitStruct.Speed = GPIO_SPEED_FREQ_LOW;
 8001e04:	9404      	str	r4, [sp, #16]
  HAL_GPIO_Init(HCI_TL_SPI_CS_PORT, &GPIO_InitStruct); 
 8001e06:	f7fe fbdd 	bl	80005c4 <HAL_GPIO_Init>
    
  return BSP_SPI1_Init();
 8001e0a:	f000 fd13 	bl	8002834 <BSP_SPI1_Init>
}
 8001e0e:	b006      	add	sp, #24
 8001e10:	bd70      	pop	{r4, r5, r6, pc}
 8001e12:	46c0      	nop			; (mov r8, r8)
 8001e14:	40021000 	.word	0x40021000
 8001e18:	10110000 	.word	0x10110000

08001e1c <HCI_TL_SPI_DeInit>:
 *
 * @param  None
 * @retval int32_t 0
 */
int32_t HCI_TL_SPI_DeInit(void)
{
 8001e1c:	b510      	push	{r4, lr}
  HAL_GPIO_DeInit(HCI_TL_SPI_EXTI_PORT, HCI_TL_SPI_EXTI_PIN); 
 8001e1e:	24a0      	movs	r4, #160	; 0xa0
 8001e20:	05e4      	lsls	r4, r4, #23
 8001e22:	0020      	movs	r0, r4
 8001e24:	2101      	movs	r1, #1
 8001e26:	f7fe fc83 	bl	8000730 <HAL_GPIO_DeInit>
  HAL_GPIO_DeInit(HCI_TL_SPI_CS_PORT, HCI_TL_SPI_CS_PIN); 
 8001e2a:	0020      	movs	r0, r4
 8001e2c:	2102      	movs	r1, #2
 8001e2e:	f7fe fc7f 	bl	8000730 <HAL_GPIO_DeInit>
  HAL_GPIO_DeInit(HCI_TL_RST_PORT, HCI_TL_RST_PIN);   
 8001e32:	2180      	movs	r1, #128	; 0x80
 8001e34:	0020      	movs	r0, r4
 8001e36:	0049      	lsls	r1, r1, #1
 8001e38:	f7fe fc7a 	bl	8000730 <HAL_GPIO_DeInit>
  return 0;
}
 8001e3c:	2000      	movs	r0, #0
 8001e3e:	bd10      	pop	{r4, pc}

08001e40 <HCI_TL_SPI_Reset>:
 *
 * @param  None
 * @retval int32_t 0
 */
int32_t HCI_TL_SPI_Reset(void)
{
 8001e40:	b570      	push	{r4, r5, r6, lr}
  HAL_GPIO_WritePin(HCI_TL_RST_PORT, HCI_TL_RST_PIN, GPIO_PIN_RESET);
 8001e42:	2580      	movs	r5, #128	; 0x80
 8001e44:	24a0      	movs	r4, #160	; 0xa0
 8001e46:	006d      	lsls	r5, r5, #1
 8001e48:	05e4      	lsls	r4, r4, #23
 8001e4a:	0029      	movs	r1, r5
 8001e4c:	2200      	movs	r2, #0
 8001e4e:	0020      	movs	r0, r4
 8001e50:	f7fe fcf0 	bl	8000834 <HAL_GPIO_WritePin>
  HAL_Delay(5);
 8001e54:	2005      	movs	r0, #5
 8001e56:	f7fe fb51 	bl	80004fc <HAL_Delay>
  HAL_GPIO_WritePin(HCI_TL_RST_PORT, HCI_TL_RST_PIN, GPIO_PIN_SET);
 8001e5a:	0029      	movs	r1, r5
 8001e5c:	2201      	movs	r2, #1
 8001e5e:	0020      	movs	r0, r4
 8001e60:	f7fe fce8 	bl	8000834 <HAL_GPIO_WritePin>
  HAL_Delay(5);    
 8001e64:	2005      	movs	r0, #5
 8001e66:	f7fe fb49 	bl	80004fc <HAL_Delay>
  return 0;
}  
 8001e6a:	2000      	movs	r0, #0
 8001e6c:	bd70      	pop	{r4, r5, r6, pc}

08001e6e <HCI_TL_SPI_Receive>:
 * @param  buffer : Buffer where data from SPI are stored
 * @param  size   : Buffer size
 * @retval int32_t: Number of read bytes
 */
int32_t HCI_TL_SPI_Receive(uint8_t* buffer, uint16_t size)
{
 8001e6e:	b5f0      	push	{r4, r5, r6, r7, lr}
 8001e70:	b089      	sub	sp, #36	; 0x24
  uint16_t byte_count;
  uint8_t len = 0;
  uint8_t char_ff = 0xff;
  volatile uint8_t read_char;

  uint8_t header_master[HEADER_SIZE] = {0x0b, 0x00, 0x00, 0x00, 0x00};
 8001e72:	2500      	movs	r5, #0
{
 8001e74:	9001      	str	r0, [sp, #4]
  uint8_t char_ff = 0xff;
 8001e76:	23ff      	movs	r3, #255	; 0xff
  uint8_t header_slave[HEADER_SIZE];

  /* CS reset */
  HAL_GPIO_WritePin(HCI_TL_SPI_CS_PORT, HCI_TL_SPI_CS_PIN, GPIO_PIN_RESET);
 8001e78:	20a0      	movs	r0, #160	; 0xa0
  uint8_t char_ff = 0xff;
 8001e7a:	aa02      	add	r2, sp, #8
  uint8_t header_master[HEADER_SIZE] = {0x0b, 0x00, 0x00, 0x00, 0x00};
 8001e7c:	ac04      	add	r4, sp, #16
  uint8_t char_ff = 0xff;
 8001e7e:	7193      	strb	r3, [r2, #6]
  HAL_GPIO_WritePin(HCI_TL_SPI_CS_PORT, HCI_TL_SPI_CS_PIN, GPIO_PIN_RESET);
 8001e80:	05c0      	lsls	r0, r0, #23
  uint8_t header_master[HEADER_SIZE] = {0x0b, 0x00, 0x00, 0x00, 0x00};
 8001e82:	3bf4      	subs	r3, #244	; 0xf4
  HAL_GPIO_WritePin(HCI_TL_SPI_CS_PORT, HCI_TL_SPI_CS_PIN, GPIO_PIN_RESET);
 8001e84:	002a      	movs	r2, r5

  /* Read the header */  
  BSP_SPI1_SendRecv(header_master, header_slave, HEADER_SIZE);
 8001e86:	ae06      	add	r6, sp, #24
{
 8001e88:	000f      	movs	r7, r1
  HAL_GPIO_WritePin(HCI_TL_SPI_CS_PORT, HCI_TL_SPI_CS_PIN, GPIO_PIN_RESET);
 8001e8a:	2102      	movs	r1, #2
  uint8_t header_master[HEADER_SIZE] = {0x0b, 0x00, 0x00, 0x00, 0x00};
 8001e8c:	7023      	strb	r3, [r4, #0]
 8001e8e:	7065      	strb	r5, [r4, #1]
 8001e90:	70a5      	strb	r5, [r4, #2]
 8001e92:	70e5      	strb	r5, [r4, #3]
 8001e94:	7125      	strb	r5, [r4, #4]
  HAL_GPIO_WritePin(HCI_TL_SPI_CS_PORT, HCI_TL_SPI_CS_PIN, GPIO_PIN_RESET);
 8001e96:	f7fe fccd 	bl	8000834 <HAL_GPIO_WritePin>
  BSP_SPI1_SendRecv(header_master, header_slave, HEADER_SIZE);
 8001e9a:	0020      	movs	r0, r4
 8001e9c:	2205      	movs	r2, #5
 8001e9e:	0031      	movs	r1, r6
 8001ea0:	f000 fc94 	bl	80027cc <BSP_SPI1_SendRecv>
  	
  if(header_slave[0] == 0x02) 
 8001ea4:	7833      	ldrb	r3, [r6, #0]
  uint8_t len = 0;
 8001ea6:	002c      	movs	r4, r5
  if(header_slave[0] == 0x02) 
 8001ea8:	2b02      	cmp	r3, #2
 8001eaa:	d10d      	bne.n	8001ec8 <HCI_TL_SPI_Receive+0x5a>
  {
    /* device is ready */
    byte_count = (header_slave[4] << 8)| header_slave[3];
 8001eac:	7932      	ldrb	r2, [r6, #4]
 8001eae:	78f3      	ldrb	r3, [r6, #3]
 8001eb0:	0212      	lsls	r2, r2, #8
 8001eb2:	4313      	orrs	r3, r2
  
    if(byte_count > 0) {
 8001eb4:	42ab      	cmp	r3, r5
 8001eb6:	d007      	beq.n	8001ec8 <HCI_TL_SPI_Receive+0x5a>
 8001eb8:	1c1e      	adds	r6, r3, #0
 8001eba:	42bb      	cmp	r3, r7
 8001ebc:	d900      	bls.n	8001ec0 <HCI_TL_SPI_Receive+0x52>
 8001ebe:	1c3e      	adds	r6, r7, #0

      if (byte_count > size){
        byte_count = size;
      }        
  
      for(len = 0; len < byte_count; len++)
 8001ec0:	2400      	movs	r4, #0
 8001ec2:	b2b6      	uxth	r6, r6
 8001ec4:	42b4      	cmp	r4, r6
 8001ec6:	d308      	bcc.n	8001eda <HCI_TL_SPI_Receive+0x6c>
        buffer[len] = read_char;
      }      
    }    
  }
  /* Release CS line */
  HAL_GPIO_WritePin(HCI_TL_SPI_CS_PORT, HCI_TL_SPI_CS_PIN, GPIO_PIN_SET);
 8001ec8:	20a0      	movs	r0, #160	; 0xa0
 8001eca:	2201      	movs	r2, #1
 8001ecc:	2102      	movs	r1, #2
 8001ece:	05c0      	lsls	r0, r0, #23
 8001ed0:	f7fe fcb0 	bl	8000834 <HAL_GPIO_WritePin>
    PRINT_CSV("\n");
  }
#endif
  
  return len;  
}
 8001ed4:	0020      	movs	r0, r4
 8001ed6:	b009      	add	sp, #36	; 0x24
 8001ed8:	bdf0      	pop	{r4, r5, r6, r7, pc}
        BSP_SPI1_SendRecv(&char_ff, (uint8_t*)&read_char, 1);  
 8001eda:	ab02      	add	r3, sp, #8
 8001edc:	1ddd      	adds	r5, r3, #7
 8001ede:	2201      	movs	r2, #1
 8001ee0:	1d98      	adds	r0, r3, #6
 8001ee2:	0029      	movs	r1, r5
 8001ee4:	f000 fc72 	bl	80027cc <BSP_SPI1_SendRecv>
        buffer[len] = read_char;
 8001ee8:	782b      	ldrb	r3, [r5, #0]
 8001eea:	9a01      	ldr	r2, [sp, #4]
 8001eec:	5513      	strb	r3, [r2, r4]
      for(len = 0; len < byte_count; len++)
 8001eee:	3401      	adds	r4, #1
 8001ef0:	b2e4      	uxtb	r4, r4
 8001ef2:	e7e7      	b.n	8001ec4 <HCI_TL_SPI_Receive+0x56>

08001ef4 <HCI_TL_SPI_Send>:
 */
int32_t HCI_TL_SPI_Send(uint8_t* buffer, uint16_t size)
{  
  int32_t result;  
  
  uint8_t header_master[HEADER_SIZE] = {0x0a, 0x00, 0x00, 0x00, 0x00};
 8001ef4:	230a      	movs	r3, #10
{  
 8001ef6:	b5f0      	push	{r4, r5, r6, r7, lr}
 8001ef8:	b087      	sub	sp, #28
  uint8_t header_master[HEADER_SIZE] = {0x0a, 0x00, 0x00, 0x00, 0x00};
 8001efa:	aa02      	add	r2, sp, #8
 8001efc:	7013      	strb	r3, [r2, #0]
 8001efe:	2300      	movs	r3, #0
{  
 8001f00:	9001      	str	r0, [sp, #4]
 8001f02:	000e      	movs	r6, r1
  uint8_t header_master[HEADER_SIZE] = {0x0a, 0x00, 0x00, 0x00, 0x00};
 8001f04:	7053      	strb	r3, [r2, #1]
 8001f06:	7093      	strb	r3, [r2, #2]
 8001f08:	70d3      	strb	r3, [r2, #3]
 8001f0a:	7113      	strb	r3, [r2, #4]
  uint8_t header_slave[HEADER_SIZE];
  
  static uint8_t read_char_buf[MAX_BUFFER_SIZE];
  uint32_t tickstart = HAL_GetTick();
 8001f0c:	f7fe faf0 	bl	80004f0 <HAL_GetTick>
  do
  {
    result = 0;
    
    /* CS reset */
    HAL_GPIO_WritePin(HCI_TL_SPI_CS_PORT, HCI_TL_SPI_CS_PIN, GPIO_PIN_RESET);
 8001f10:	2702      	movs	r7, #2
  uint32_t tickstart = HAL_GetTick();
 8001f12:	9000      	str	r0, [sp, #0]
    HAL_GPIO_WritePin(HCI_TL_SPI_CS_PORT, HCI_TL_SPI_CS_PIN, GPIO_PIN_RESET);
 8001f14:	20a0      	movs	r0, #160	; 0xa0
        /* Buffer is too small */
        result = -2;
      }
    } else {
      /* SPI is not ready */
      result = -1;
 8001f16:	2401      	movs	r4, #1
    HAL_GPIO_WritePin(HCI_TL_SPI_CS_PORT, HCI_TL_SPI_CS_PIN, GPIO_PIN_RESET);
 8001f18:	2200      	movs	r2, #0
 8001f1a:	0039      	movs	r1, r7
 8001f1c:	05c0      	lsls	r0, r0, #23
    BSP_SPI1_SendRecv(header_master, header_slave, HEADER_SIZE);
 8001f1e:	ad04      	add	r5, sp, #16
    HAL_GPIO_WritePin(HCI_TL_SPI_CS_PORT, HCI_TL_SPI_CS_PIN, GPIO_PIN_RESET);
 8001f20:	f7fe fc88 	bl	8000834 <HAL_GPIO_WritePin>
    BSP_SPI1_SendRecv(header_master, header_slave, HEADER_SIZE);
 8001f24:	2205      	movs	r2, #5
 8001f26:	0029      	movs	r1, r5
 8001f28:	a802      	add	r0, sp, #8
 8001f2a:	f000 fc4f 	bl	80027cc <BSP_SPI1_SendRecv>
    if(header_slave[0] == 0x02) 
 8001f2e:	782b      	ldrb	r3, [r5, #0]
      result = -1;
 8001f30:	4264      	negs	r4, r4
    if(header_slave[0] == 0x02) 
 8001f32:	2b02      	cmp	r3, #2
 8001f34:	d108      	bne.n	8001f48 <HCI_TL_SPI_Send+0x54>
      if(header_slave[1] >= size) 
 8001f36:	786b      	ldrb	r3, [r5, #1]
 8001f38:	42b3      	cmp	r3, r6
 8001f3a:	d316      	bcc.n	8001f6a <HCI_TL_SPI_Send+0x76>
        BSP_SPI1_SendRecv(buffer, read_char_buf, size);
 8001f3c:	0032      	movs	r2, r6
 8001f3e:	490e      	ldr	r1, [pc, #56]	; (8001f78 <HCI_TL_SPI_Send+0x84>)
 8001f40:	9801      	ldr	r0, [sp, #4]
 8001f42:	f000 fc43 	bl	80027cc <BSP_SPI1_SendRecv>
    result = 0;
 8001f46:	2400      	movs	r4, #0
    }
    
    /* Release CS line */
    HAL_GPIO_WritePin(HCI_TL_SPI_CS_PORT, HCI_TL_SPI_CS_PIN, GPIO_PIN_SET);
 8001f48:	20a0      	movs	r0, #160	; 0xa0
 8001f4a:	2201      	movs	r2, #1
 8001f4c:	0039      	movs	r1, r7
 8001f4e:	05c0      	lsls	r0, r0, #23
 8001f50:	f7fe fc70 	bl	8000834 <HAL_GPIO_WritePin>
    
    if((HAL_GetTick() - tickstart) > TIMEOUT_DURATION)
 8001f54:	f7fe facc 	bl	80004f0 <HAL_GetTick>
 8001f58:	9b00      	ldr	r3, [sp, #0]
 8001f5a:	1ac0      	subs	r0, r0, r3
 8001f5c:	280f      	cmp	r0, #15
 8001f5e:	d807      	bhi.n	8001f70 <HCI_TL_SPI_Send+0x7c>
    {
      result = -3;
      break;
    }
  } while(result < 0);
 8001f60:	2c00      	cmp	r4, #0
 8001f62:	d1d7      	bne.n	8001f14 <HCI_TL_SPI_Send+0x20>
  
  return result;
}
 8001f64:	0020      	movs	r0, r4
 8001f66:	b007      	add	sp, #28
 8001f68:	bdf0      	pop	{r4, r5, r6, r7, pc}
        result = -2;
 8001f6a:	2402      	movs	r4, #2
 8001f6c:	4264      	negs	r4, r4
 8001f6e:	e7eb      	b.n	8001f48 <HCI_TL_SPI_Send+0x54>
      result = -3;
 8001f70:	2403      	movs	r4, #3
 8001f72:	4264      	negs	r4, r4
  return result;
 8001f74:	e7f6      	b.n	8001f64 <HCI_TL_SPI_Send+0x70>
 8001f76:	46c0      	nop			; (mov r8, r8)
 8001f78:	20000364 	.word	0x20000364

08001f7c <hci_tl_lowlevel_isr>:
  *
  * @param  None
  * @retval None
  */
void hci_tl_lowlevel_isr(void)
{
 8001f7c:	b510      	push	{r4, lr}
  return (HAL_GPIO_ReadPin(HCI_TL_SPI_EXTI_PORT, HCI_TL_SPI_EXTI_PIN) == GPIO_PIN_SET);
 8001f7e:	24a0      	movs	r4, #160	; 0xa0
 8001f80:	05e4      	lsls	r4, r4, #23
 8001f82:	2101      	movs	r1, #1
 8001f84:	0020      	movs	r0, r4
 8001f86:	f7fe fc4f 	bl	8000828 <HAL_GPIO_ReadPin>
  /* Call hci_notify_asynch_evt() */
#ifdef HCI_TL
  while(IsDataAvailable())
 8001f8a:	2801      	cmp	r0, #1
 8001f8c:	d000      	beq.n	8001f90 <hci_tl_lowlevel_isr+0x14>
#endif /* HCI_TL */

  /* USER CODE BEGIN hci_tl_lowlevel_isr */

  /* USER CODE END hci_tl_lowlevel_isr */ 
}
 8001f8e:	bd10      	pop	{r4, pc}
    hci_notify_asynch_evt(NULL);
 8001f90:	2000      	movs	r0, #0
 8001f92:	f7ff fe7b 	bl	8001c8c <hci_notify_asynch_evt>
 8001f96:	e7f4      	b.n	8001f82 <hci_tl_lowlevel_isr+0x6>

08001f98 <hci_tl_lowlevel_init>:
{
 8001f98:	b510      	push	{r4, lr}
  fops.Init    = HCI_TL_SPI_Init;
 8001f9a:	4b12      	ldr	r3, [pc, #72]	; (8001fe4 <hci_tl_lowlevel_init+0x4c>)
{
 8001f9c:	b088      	sub	sp, #32
  fops.Init    = HCI_TL_SPI_Init;
 8001f9e:	9301      	str	r3, [sp, #4]
  fops.DeInit  = HCI_TL_SPI_DeInit;
 8001fa0:	4b11      	ldr	r3, [pc, #68]	; (8001fe8 <hci_tl_lowlevel_init+0x50>)
  hci_register_io_bus (&fops);
 8001fa2:	a801      	add	r0, sp, #4
  fops.DeInit  = HCI_TL_SPI_DeInit;
 8001fa4:	9302      	str	r3, [sp, #8]
  fops.Send    = HCI_TL_SPI_Send;
 8001fa6:	4b11      	ldr	r3, [pc, #68]	; (8001fec <hci_tl_lowlevel_init+0x54>)
 8001fa8:	9305      	str	r3, [sp, #20]
  fops.Receive = HCI_TL_SPI_Receive;
 8001faa:	4b11      	ldr	r3, [pc, #68]	; (8001ff0 <hci_tl_lowlevel_init+0x58>)
 8001fac:	9304      	str	r3, [sp, #16]
  fops.Reset   = HCI_TL_SPI_Reset;
 8001fae:	4b11      	ldr	r3, [pc, #68]	; (8001ff4 <hci_tl_lowlevel_init+0x5c>)
 8001fb0:	9303      	str	r3, [sp, #12]
  fops.GetTick = BSP_GetTick;
 8001fb2:	4b11      	ldr	r3, [pc, #68]	; (8001ff8 <hci_tl_lowlevel_init+0x60>)
 8001fb4:	9307      	str	r3, [sp, #28]
  hci_register_io_bus (&fops);
 8001fb6:	f7ff fd6d 	bl	8001a94 <hci_register_io_bus>
  HAL_EXTI_GetHandle(&hexti0, EXTI_LINE_0);
 8001fba:	21c0      	movs	r1, #192	; 0xc0
 8001fbc:	4c0f      	ldr	r4, [pc, #60]	; (8001ffc <hci_tl_lowlevel_init+0x64>)
 8001fbe:	04c9      	lsls	r1, r1, #19
 8001fc0:	0020      	movs	r0, r4
 8001fc2:	f000 fca2 	bl	800290a <HAL_EXTI_GetHandle>
  HAL_EXTI_RegisterCallback(&hexti0, HAL_EXTI_COMMON_CB_ID, hci_tl_lowlevel_isr);
 8001fc6:	4a0e      	ldr	r2, [pc, #56]	; (8002000 <hci_tl_lowlevel_init+0x68>)
 8001fc8:	2100      	movs	r1, #0
 8001fca:	0020      	movs	r0, r4
 8001fcc:	f000 fc96 	bl	80028fc <HAL_EXTI_RegisterCallback>
  HAL_NVIC_SetPriority(EXTI0_1_IRQn, 0, 0);
 8001fd0:	2200      	movs	r2, #0
 8001fd2:	2005      	movs	r0, #5
 8001fd4:	0011      	movs	r1, r2
 8001fd6:	f7fe faa1 	bl	800051c <HAL_NVIC_SetPriority>
  HAL_NVIC_EnableIRQ(EXTI0_1_IRQn);
 8001fda:	2005      	movs	r0, #5
 8001fdc:	f7fe face 	bl	800057c <HAL_NVIC_EnableIRQ>
}
 8001fe0:	b008      	add	sp, #32
 8001fe2:	bd10      	pop	{r4, pc}
 8001fe4:	08001db9 	.word	0x08001db9
 8001fe8:	08001e1d 	.word	0x08001e1d
 8001fec:	08001ef5 	.word	0x08001ef5
 8001ff0:	08001e6f 	.word	0x08001e6f
 8001ff4:	08001e41 	.word	0x08001e41
 8001ff8:	080027f5 	.word	0x080027f5
 8001ffc:	20000488 	.word	0x20000488
 8002000:	08001f7d 	.word	0x08001f7d

08002004 <LGS_SetAddress>:

/**
 * Define the MAC Adress of the Device
 */
void LGS_SetAddress(uint8_t* bdaddr, uint8_t hwVersion, uint16_t fwVersion)
{
 8002004:	b570      	push	{r4, r5, r6, lr}
 8002006:	0016      	movs	r6, r2
 8002008:	000c      	movs	r4, r1
 800200a:	0005      	movs	r5, r0
	//Random

	uint8_t i;

	/* Initialize a random seed */
	srand (HAL_GetTick() + hwVersion + fwVersion);
 800200c:	f7fe fa70 	bl	80004f0 <HAL_GetTick>
 8002010:	19a4      	adds	r4, r4, r6
 8002012:	1820      	adds	r0, r4, r0
 8002014:	f000 fd3e 	bl	8002a94 <srand>
 8002018:	002c      	movs	r4, r5
 800201a:	1d6e      	adds	r6, r5, #5

	for (i=0; i<5; i++) {
		bdaddr[i] = rand()&0xFF;
 800201c:	f000 fd68 	bl	8002af0 <rand>
 8002020:	7020      	strb	r0, [r4, #0]
 8002022:	3401      	adds	r4, #1
	for (i=0; i<5; i++) {
 8002024:	42a6      	cmp	r6, r4
 8002026:	d1f9      	bne.n	800201c <LGS_SetAddress+0x18>
	}
	bdaddr[i] = 0xD0;
 8002028:	23d0      	movs	r3, #208	; 0xd0
 800202a:	716b      	strb	r3, [r5, #5]
}
 800202c:	bd70      	pop	{r4, r5, r6, pc}
	...

08002030 <LGS_UpdateStackData>:

/**
 * Updated alle Daten im BLE Stack
 */
tBleStatus LGS_UpdateStackData(void)
{
 8002030:	b513      	push	{r0, r1, r4, lr}
	tBleStatus status;

	//Bright Flag
	status = aci_gatt_update_char_value(
 8002032:	4b1d      	ldr	r3, [pc, #116]	; (80020a8 <LGS_UpdateStackData+0x78>)
 8002034:	4c1d      	ldr	r4, [pc, #116]	; (80020ac <LGS_UpdateStackData+0x7c>)
 8002036:	2200      	movs	r2, #0
 8002038:	8921      	ldrh	r1, [r4, #8]
 800203a:	8860      	ldrh	r0, [r4, #2]
 800203c:	9300      	str	r3, [sp, #0]
 800203e:	2303      	movs	r3, #3
 8002040:	f7ff fba1 	bl	8001786 <aci_gatt_update_char_value>
 8002044:	1e02      	subs	r2, r0, #0
			m_serviceHandles.m_environmentServiceHandle, 	//Service Handle
			m_serviceHandles.m_environmentCharBrightHandle,	//Characteristic Handle
			0, 												//Offset
			2+sizeof(m_environmentData.m_environmentBright), 	//LEN
			&m_environmentData.m_environmentBright);		//const void *  charValue
	if(status != BLE_STATUS_SUCCESS) goto fail;
 8002046:	d12c      	bne.n	80020a2 <LGS_UpdateStackData+0x72>

	//Temperature
	status = aci_gatt_update_char_value(
 8002048:	4b19      	ldr	r3, [pc, #100]	; (80020b0 <LGS_UpdateStackData+0x80>)
 800204a:	8961      	ldrh	r1, [r4, #10]
 800204c:	8860      	ldrh	r0, [r4, #2]
 800204e:	9300      	str	r3, [sp, #0]
 8002050:	2303      	movs	r3, #3
 8002052:	f7ff fb98 	bl	8001786 <aci_gatt_update_char_value>
 8002056:	1e02      	subs	r2, r0, #0
			m_serviceHandles.m_environmentServiceHandle, 	//Service Handle
			m_serviceHandles.m_environmentCharTempHandle,	//Characteristic Handle
			0, 												//Offset
			2+sizeof(m_environmentData.m_environmentTemperature), //LEN
			&m_environmentData.m_environmentTemperature);		//const void *  charValue
	if(status != BLE_STATUS_SUCCESS) goto fail;
 8002058:	d123      	bne.n	80020a2 <LGS_UpdateStackData+0x72>

	//Pressure
	status = aci_gatt_update_char_value(
 800205a:	4b16      	ldr	r3, [pc, #88]	; (80020b4 <LGS_UpdateStackData+0x84>)
 800205c:	8a61      	ldrh	r1, [r4, #18]
 800205e:	8860      	ldrh	r0, [r4, #2]
 8002060:	9300      	str	r3, [sp, #0]
 8002062:	2304      	movs	r3, #4
 8002064:	f7ff fb8f 	bl	8001786 <aci_gatt_update_char_value>
 8002068:	1e02      	subs	r2, r0, #0
			m_serviceHandles.m_environmentServiceHandle, 	//Service Handle
			m_serviceHandles.m_environmentCharPressureHandle,	//Characteristic Handle
			0, 													//Offset
			2+sizeof(m_environmentData.m_environmentAirPressure), //LEN
			&m_environmentData.m_environmentAirPressure);		//const void *  charValue
	if(status != BLE_STATUS_SUCCESS) goto fail;
 800206a:	d11a      	bne.n	80020a2 <LGS_UpdateStackData+0x72>

	//CO2
	status = aci_gatt_update_char_value(
 800206c:	4b12      	ldr	r3, [pc, #72]	; (80020b8 <LGS_UpdateStackData+0x88>)
 800206e:	89e1      	ldrh	r1, [r4, #14]
 8002070:	8860      	ldrh	r0, [r4, #2]
 8002072:	9300      	str	r3, [sp, #0]
 8002074:	2304      	movs	r3, #4
 8002076:	f7ff fb86 	bl	8001786 <aci_gatt_update_char_value>
 800207a:	1e02      	subs	r2, r0, #0
			m_serviceHandles.m_environmentServiceHandle, 	//Service Handle
			m_serviceHandles.m_environmentCharCO2Handle,	//Characteristic Handle
			0, 												//Offset
			2+sizeof(m_environmentData.m_environmentCO2), 	//LEN
			&m_environmentData.m_environmentCO2);			//const void *  charValue
	if(status != BLE_STATUS_SUCCESS) goto fail;
 800207c:	d111      	bne.n	80020a2 <LGS_UpdateStackData+0x72>

	//Humidity
	status = aci_gatt_update_char_value(
 800207e:	4b0f      	ldr	r3, [pc, #60]	; (80020bc <LGS_UpdateStackData+0x8c>)
 8002080:	8a21      	ldrh	r1, [r4, #16]
 8002082:	8860      	ldrh	r0, [r4, #2]
 8002084:	9300      	str	r3, [sp, #0]
 8002086:	2303      	movs	r3, #3
 8002088:	f7ff fb7d 	bl	8001786 <aci_gatt_update_char_value>
 800208c:	1e02      	subs	r2, r0, #0
			m_serviceHandles.m_environmentServiceHandle, 	//Service Handle
			m_serviceHandles.m_environmentCharHumidityHandle,//Characteristic Handle
			0, 													//Offset
			2+sizeof(m_environmentData.m_environmentAirHumidity), //LEN
			&m_environmentData.m_environmentAirHumidity);		//const void *  charValue
	if(status != BLE_STATUS_SUCCESS) goto fail;
 800208e:	d108      	bne.n	80020a2 <LGS_UpdateStackData+0x72>

	//VOC
	status = aci_gatt_update_char_value(
 8002090:	4b0b      	ldr	r3, [pc, #44]	; (80020c0 <LGS_UpdateStackData+0x90>)
 8002092:	89a1      	ldrh	r1, [r4, #12]
 8002094:	8860      	ldrh	r0, [r4, #2]
 8002096:	9300      	str	r3, [sp, #0]
 8002098:	2304      	movs	r3, #4
 800209a:	f7ff fb74 	bl	8001786 <aci_gatt_update_char_value>
			m_serviceHandles.m_environmentServiceHandle, 	//Service Handle
			m_serviceHandles.m_environmentCharVOCHandle,	//Characteristic Handle
			0, 												//Offset
			2+sizeof(m_environmentData.m_environmentVOC), 	//LEN
			&m_environmentData.m_environmentVOC);			//const void *  charValue
	if(status != BLE_STATUS_SUCCESS) goto fail;
 800209e:	2800      	cmp	r0, #0
 80020a0:	d000      	beq.n	80020a4 <LGS_UpdateStackData+0x74>

	return BLE_STATUS_SUCCESS;

	fail:
	  return BLE_STATUS_ERROR;
 80020a2:	2047      	movs	r0, #71	; 0x47
}
 80020a4:	bd16      	pop	{r1, r2, r4, pc}
 80020a6:	46c0      	nop			; (mov r8, r8)
 80020a8:	200004ac 	.word	0x200004ac
 80020ac:	200004c6 	.word	0x200004c6
 80020b0:	200004ad 	.word	0x200004ad
 80020b4:	200004b4 	.word	0x200004b4
 80020b8:	200004b0 	.word	0x200004b0
 80020bc:	200004b2 	.word	0x200004b2
 80020c0:	200004ae 	.word	0x200004ae

080020c4 <LGS_SetDiscoverableMode>:

/**
 * Setzt das Device in Connectable Mode
 */
void LGS_SetDiscoverableMode(void)
{
 80020c4:	b570      	push	{r4, r5, r6, lr}
	uint8_t ret;
	const char local_name[] = {AD_TYPE_COMPLETE_LOCAL_NAME, LGS_MOD_NAME};
 80020c6:	250a      	movs	r5, #10
{
 80020c8:	b092      	sub	sp, #72	; 0x48
	const char local_name[] = {AD_TYPE_COMPLETE_LOCAL_NAME, LGS_MOD_NAME};
 80020ca:	ae09      	add	r6, sp, #36	; 0x24
 80020cc:	002a      	movs	r2, r5
 80020ce:	4924      	ldr	r1, [pc, #144]	; (8002160 <LGS_SetDiscoverableMode+0x9c>)
 80020d0:	0030      	movs	r0, r6
 80020d2:	f000 fccd 	bl	8002a70 <memcpy>

#define LEN (22)							//Length of manuf_data
	uint8_t manuf_data[LEN] = {
 80020d6:	2302      	movs	r3, #2
 80020d8:	2274      	movs	r2, #116	; 0x74
			bdaddr[3],
			bdaddr[4],
			bdaddr[5]  /* BLE MAC stop */
	};

	hci_le_set_scan_resp_data(0, NULL);
 80020da:	2100      	movs	r1, #0
	uint8_t manuf_data[LEN] = {
 80020dc:	ac0c      	add	r4, sp, #48	; 0x30
 80020de:	7023      	strb	r3, [r4, #0]
 80020e0:	18db      	adds	r3, r3, r3
 80020e2:	70a3      	strb	r3, [r4, #2]
 80020e4:	3305      	adds	r3, #5
 80020e6:	7123      	strb	r3, [r4, #4]
 80020e8:	3343      	adds	r3, #67	; 0x43
 80020ea:	7163      	strb	r3, [r4, #5]
 80020ec:	3b05      	subs	r3, #5
 80020ee:	71a3      	strb	r3, [r4, #6]
 80020f0:	330c      	adds	r3, #12
 80020f2:	71e3      	strb	r3, [r4, #7]
 80020f4:	3b25      	subs	r3, #37	; 0x25
 80020f6:	7223      	strb	r3, [r4, #8]
 80020f8:	7323      	strb	r3, [r4, #12]
 80020fa:	3302      	adds	r3, #2
 80020fc:	7363      	strb	r3, [r4, #13]
 80020fe:	3b29      	subs	r3, #41	; 0x29
 8002100:	73a3      	strb	r3, [r4, #14]
 8002102:	33f8      	adds	r3, #248	; 0xf8
 8002104:	7262      	strb	r2, [r4, #9]
 8002106:	73e3      	strb	r3, [r4, #15]
 8002108:	3a12      	subs	r2, #18
			bdaddr[0], /* BLE MAC start */
 800210a:	4b16      	ldr	r3, [pc, #88]	; (8002164 <LGS_SetDiscoverableMode+0xa0>)
	uint8_t manuf_data[LEN] = {
 800210c:	72a2      	strb	r2, [r4, #10]
 800210e:	3a31      	subs	r2, #49	; 0x31
 8002110:	72e2      	strb	r2, [r4, #11]
 8002112:	781a      	ldrb	r2, [r3, #0]
 8002114:	7065      	strb	r5, [r4, #1]
 8002116:	70e5      	strb	r5, [r4, #3]
 8002118:	7422      	strb	r2, [r4, #16]
 800211a:	785a      	ldrb	r2, [r3, #1]
	hci_le_set_scan_resp_data(0, NULL);
 800211c:	0008      	movs	r0, r1
	uint8_t manuf_data[LEN] = {
 800211e:	7462      	strb	r2, [r4, #17]
 8002120:	789a      	ldrb	r2, [r3, #2]
 8002122:	74a2      	strb	r2, [r4, #18]
 8002124:	78da      	ldrb	r2, [r3, #3]
 8002126:	74e2      	strb	r2, [r4, #19]
 8002128:	791a      	ldrb	r2, [r3, #4]
 800212a:	7522      	strb	r2, [r4, #20]
 800212c:	795b      	ldrb	r3, [r3, #5]
 800212e:	7563      	strb	r3, [r4, #21]
	hci_le_set_scan_resp_data(0, NULL);
 8002130:	f7ff fc3e 	bl	80019b0 <hci_le_set_scan_resp_data>

	PRINTF("Set General Discoverable Mode.\n");

	//The device will be discoverable until the Host issue Aci_Gap_Set_Non_Discoverable command:
	ret = aci_gap_set_discoverable(
 8002134:	2000      	movs	r0, #0
 8002136:	22f0      	movs	r2, #240	; 0xf0
 8002138:	21c8      	movs	r1, #200	; 0xc8
 800213a:	2301      	movs	r3, #1
 800213c:	00d2      	lsls	r2, r2, #3
 800213e:	9006      	str	r0, [sp, #24]
 8002140:	9005      	str	r0, [sp, #20]
 8002142:	9004      	str	r0, [sp, #16]
 8002144:	9003      	str	r0, [sp, #12]
 8002146:	9602      	str	r6, [sp, #8]
 8002148:	9501      	str	r5, [sp, #4]
 800214a:	9000      	str	r0, [sp, #0]
 800214c:	00c9      	lsls	r1, r1, #3
 800214e:	f7ff f98b 	bl	8001468 <aci_gap_set_discoverable>
	//connIntervalmin = Slave_Conn_Interval_Min x 1.25ms Slave_Conn_Interval_Min range:
	//0x0006 to 0x0C80 Value of 0xFFFF indicates no specific minimum.
	// ---> beide 0 lassen

	//Update advertising data:
	aci_gap_update_adv_data(
 8002152:	0021      	movs	r1, r4
 8002154:	2016      	movs	r0, #22
 8002156:	f7ff fa37 	bl	80015c8 <aci_gap_update_adv_data>
	{
		PRINTF("aci_gap_set_discoverable() failed: 0x%02x\r\n", ret);
	}
	else
		PRINTF("aci_gap_set_discoverable() --> SUCCESS\r\n");
}
 800215a:	b012      	add	sp, #72	; 0x48
 800215c:	bd70      	pop	{r4, r5, r6, pc}
 800215e:	46c0      	nop			; (mov r8, r8)
 8002160:	08002c98 	.word	0x08002c98
 8002164:	20000490 	.word	0x20000490

08002168 <LGS_Process>:
{
 8002168:	b510      	push	{r4, lr}
	if (set_connectable)
 800216a:	4c32      	ldr	r4, [pc, #200]	; (8002234 <LGS_Process+0xcc>)
 800216c:	7823      	ldrb	r3, [r4, #0]
 800216e:	2b00      	cmp	r3, #0
 8002170:	d003      	beq.n	800217a <LGS_Process+0x12>
		LGS_SetDiscoverableMode();
 8002172:	f7ff ffa7 	bl	80020c4 <LGS_SetDiscoverableMode>
		set_connectable = FALSE;
 8002176:	2300      	movs	r3, #0
 8002178:	7023      	strb	r3, [r4, #0]
	BSP_LED_Toggle(LED2);
 800217a:	2000      	movs	r0, #0
 800217c:	f000 fbb6 	bl	80028ec <BSP_LED_Toggle>
	if (connected)
 8002180:	4b2d      	ldr	r3, [pc, #180]	; (8002238 <LGS_Process+0xd0>)
 8002182:	681b      	ldr	r3, [r3, #0]
 8002184:	2b00      	cmp	r3, #0
 8002186:	d052      	beq.n	800222e <LGS_Process+0xc6>
		srand(HAL_GetTick()); //Set Seed for Random Generator
 8002188:	f7fe f9b2 	bl	80004f0 <HAL_GetTick>
 800218c:	f000 fc82 	bl	8002a94 <srand>
		if(m_environmentData.m_environmentBright == 1)
 8002190:	4c2a      	ldr	r4, [pc, #168]	; (800223c <LGS_Process+0xd4>)
 8002192:	7823      	ldrb	r3, [r4, #0]
 8002194:	2b01      	cmp	r3, #1
 8002196:	d14b      	bne.n	8002230 <LGS_Process+0xc8>
			m_environmentData.m_environmentBright = 0;
 8002198:	2300      	movs	r3, #0
			m_environmentData.m_environmentBright = 1;
 800219a:	7023      	strb	r3, [r4, #0]
		m_environmentData.m_environmentTemperature 	= 15 	+ 	((uint64_t)rand()*10)	/RAND_MAX; //15-25 C
 800219c:	f000 fca8 	bl	8002af0 <rand>
 80021a0:	220a      	movs	r2, #10
 80021a2:	2300      	movs	r3, #0
 80021a4:	17c1      	asrs	r1, r0, #31
 80021a6:	f7fe f85b 	bl	8000260 <__aeabi_lmul>
 80021aa:	4a25      	ldr	r2, [pc, #148]	; (8002240 <LGS_Process+0xd8>)
 80021ac:	2300      	movs	r3, #0
 80021ae:	f7fe f837 	bl	8000220 <__aeabi_uldivmod>
 80021b2:	300f      	adds	r0, #15
 80021b4:	7060      	strb	r0, [r4, #1]
		m_environmentData.m_environmentAirPressure 	= 980 	+ 	((uint64_t)rand()*40)	/RAND_MAX; //980-1020 mBar
 80021b6:	f000 fc9b 	bl	8002af0 <rand>
 80021ba:	2228      	movs	r2, #40	; 0x28
 80021bc:	2300      	movs	r3, #0
 80021be:	17c1      	asrs	r1, r0, #31
 80021c0:	f7fe f84e 	bl	8000260 <__aeabi_lmul>
 80021c4:	4a1e      	ldr	r2, [pc, #120]	; (8002240 <LGS_Process+0xd8>)
 80021c6:	2300      	movs	r3, #0
 80021c8:	f7fe f82a 	bl	8000220 <__aeabi_uldivmod>
 80021cc:	23f5      	movs	r3, #245	; 0xf5
 80021ce:	009b      	lsls	r3, r3, #2
 80021d0:	18c0      	adds	r0, r0, r3
 80021d2:	8120      	strh	r0, [r4, #8]
		m_environmentData.m_environmentCO2 			= 400 	+ 	((uint64_t)rand()*20)	/RAND_MAX; //400-420 ppm
 80021d4:	f000 fc8c 	bl	8002af0 <rand>
 80021d8:	2214      	movs	r2, #20
 80021da:	2300      	movs	r3, #0
 80021dc:	17c1      	asrs	r1, r0, #31
 80021de:	f7fe f83f 	bl	8000260 <__aeabi_lmul>
 80021e2:	4a17      	ldr	r2, [pc, #92]	; (8002240 <LGS_Process+0xd8>)
 80021e4:	2300      	movs	r3, #0
 80021e6:	f7fe f81b 	bl	8000220 <__aeabi_uldivmod>
 80021ea:	3091      	adds	r0, #145	; 0x91
 80021ec:	30ff      	adds	r0, #255	; 0xff
 80021ee:	80a0      	strh	r0, [r4, #4]
		m_environmentData.m_environmentAirHumidity 	= 			((uint64_t)rand()*100)	/RAND_MAX; //0-100 %
 80021f0:	f000 fc7e 	bl	8002af0 <rand>
 80021f4:	2264      	movs	r2, #100	; 0x64
 80021f6:	2300      	movs	r3, #0
 80021f8:	17c1      	asrs	r1, r0, #31
 80021fa:	f7fe f831 	bl	8000260 <__aeabi_lmul>
 80021fe:	4a10      	ldr	r2, [pc, #64]	; (8002240 <LGS_Process+0xd8>)
 8002200:	2300      	movs	r3, #0
 8002202:	f7fe f80d 	bl	8000220 <__aeabi_uldivmod>
 8002206:	71a0      	strb	r0, [r4, #6]
		m_environmentData.m_environmentVOC 			= 20    +	((uint64_t)rand()*200)	/RAND_MAX; //20-220 ppb
 8002208:	f000 fc72 	bl	8002af0 <rand>
 800220c:	22c8      	movs	r2, #200	; 0xc8
 800220e:	2300      	movs	r3, #0
 8002210:	17c1      	asrs	r1, r0, #31
 8002212:	f7fe f825 	bl	8000260 <__aeabi_lmul>
 8002216:	4a0a      	ldr	r2, [pc, #40]	; (8002240 <LGS_Process+0xd8>)
 8002218:	2300      	movs	r3, #0
 800221a:	f7fe f801 	bl	8000220 <__aeabi_uldivmod>
 800221e:	3014      	adds	r0, #20
 8002220:	8060      	strh	r0, [r4, #2]
		(void)LGS_UpdateStackData();
 8002222:	f7ff ff05 	bl	8002030 <LGS_UpdateStackData>
		HAL_Delay(LGS_CYCLIC_SEND_INTERVAL);
 8002226:	20fa      	movs	r0, #250	; 0xfa
 8002228:	0040      	lsls	r0, r0, #1
 800222a:	f7fe f967 	bl	80004fc <HAL_Delay>
}
 800222e:	bd10      	pop	{r4, pc}
			m_environmentData.m_environmentBright = 1;
 8002230:	2301      	movs	r3, #1
 8002232:	e7b2      	b.n	800219a <LGS_Process+0x32>
 8002234:	20000000 	.word	0x20000000
 8002238:	200004a8 	.word	0x200004a8
 800223c:	200004ac 	.word	0x200004ac
 8002240:	7fffffff 	.word	0x7fffffff

08002244 <LGS_BLE_Process>:
{
 8002244:	b510      	push	{r4, lr}
	LGS_Process();
 8002246:	f7ff ff8f 	bl	8002168 <LGS_Process>
	hci_user_evt_proc();
 800224a:	f7ff fcff 	bl	8001c4c <hci_user_evt_proc>
}
 800224e:	bd10      	pop	{r4, pc}

08002250 <LGS_AddEnvironmentService>:

  //###################################################################################################################################
  //Add Service
  //###################################################################################################################################
  GET_ENVIRONMENT_SERVICE_UUID(uuid);
  memcpy(&service_uuid.Service_UUID_128, uuid, 16);		//Dest, Source, Length
 8002250:	239c      	movs	r3, #156	; 0x9c
 8002252:	49aa      	ldr	r1, [pc, #680]	; (80024fc <LGS_AddEnvironmentService+0x2ac>)
{
 8002254:	b5f0      	push	{r4, r5, r6, r7, lr}
  memcpy(&service_uuid.Service_UUID_128, uuid, 16);		//Dest, Source, Length
 8002256:	704b      	strb	r3, [r1, #1]
 8002258:	2345      	movs	r3, #69	; 0x45
 800225a:	708b      	strb	r3, [r1, #2]
 800225c:	3b3b      	subs	r3, #59	; 0x3b
 800225e:	70cb      	strb	r3, [r1, #3]
 8002260:	2380      	movs	r3, #128	; 0x80
 8002262:	710b      	strb	r3, [r1, #4]
 8002264:	3b33      	subs	r3, #51	; 0x33
 8002266:	714b      	strb	r3, [r1, #5]
 8002268:	237e      	movs	r3, #126	; 0x7e
 800226a:	718b      	strb	r3, [r1, #6]
 800226c:	2386      	movs	r3, #134	; 0x86
 800226e:	71cb      	strb	r3, [r1, #7]
 8002270:	336d      	adds	r3, #109	; 0x6d
 8002272:	720b      	strb	r3, [r1, #8]
 8002274:	3bb1      	subs	r3, #177	; 0xb1
 8002276:	724b      	strb	r3, [r1, #9]
 8002278:	3b3d      	subs	r3, #61	; 0x3d
 800227a:	728b      	strb	r3, [r1, #10]
 800227c:	33c5      	adds	r3, #197	; 0xc5
 800227e:	72cb      	strb	r3, [r1, #11]
 8002280:	23d5      	movs	r3, #213	; 0xd5
 8002282:	27a1      	movs	r7, #161	; 0xa1
 8002284:	730b      	strb	r3, [r1, #12]
 8002286:	3319      	adds	r3, #25
 8002288:	734b      	strb	r3, [r1, #13]
 800228a:	3bb8      	subs	r3, #184	; 0xb8
 800228c:	738b      	strb	r3, [r1, #14]
 800228e:	3347      	adds	r3, #71	; 0x47
 8002290:	73cb      	strb	r3, [r1, #15]
  ret = aci_gatt_add_serv(
 8002292:	4b9b      	ldr	r3, [pc, #620]	; (8002500 <LGS_AddEnvironmentService+0x2b0>)
{
 8002294:	b087      	sub	sp, #28
  memcpy(&service_uuid.Service_UUID_128, uuid, 16);		//Dest, Source, Length
 8002296:	700f      	strb	r7, [r1, #0]
  ret = aci_gatt_add_serv(
 8002298:	2201      	movs	r2, #1
 800229a:	9300      	str	r3, [sp, #0]
 800229c:	2002      	movs	r0, #2
 800229e:	2313      	movs	r3, #19
 80022a0:	f7ff f9da 	bl	8001658 <aci_gatt_add_serv>
 80022a4:	1e03      	subs	r3, r0, #0
		  UUID_TYPE_128, 								//UUID Type: 16/128 bit
		  service_uuid.Service_UUID_128, 				//16-bit or 128-bit UUID based on the UUID Type field; requests const uint8_t *
		  PRIMARY_SERVICE,								//Primary or secondary service
          1+3*NumberOfRecords, 							//Maximum number of attribute records(including the service declaration itself)
		  &m_serviceHandles.m_environmentServiceHandle);//Service Handle
  if (ret != BLE_STATUS_SUCCESS)
 80022a6:	d000      	beq.n	80022aa <LGS_AddEnvironmentService+0x5a>
 80022a8:	e125      	b.n	80024f6 <LGS_AddEnvironmentService+0x2a6>
  //###################################################################################################################################

  //Bright Char
  //###################################################################################################################################
  GET_ENVIRONMENT_CHAR_BRIGHT_UUID(uuid);
  memcpy(&char_uuid.Char_UUID_128, uuid, 16); //Dest, Source, Length
 80022aa:	2253      	movs	r2, #83	; 0x53
 80022ac:	4c95      	ldr	r4, [pc, #596]	; (8002504 <LGS_AddEnvironmentService+0x2b4>)
 80022ae:	2683      	movs	r6, #131	; 0x83
 80022b0:	7022      	strb	r2, [r4, #0]
 80022b2:	320a      	adds	r2, #10
 80022b4:	7062      	strb	r2, [r4, #1]
 80022b6:	223e      	movs	r2, #62	; 0x3e
 80022b8:	70a2      	strb	r2, [r4, #2]
 80022ba:	32c1      	adds	r2, #193	; 0xc1
 80022bc:	70e2      	strb	r2, [r4, #3]
 80022be:	3a47      	subs	r2, #71	; 0x47
 80022c0:	7162      	strb	r2, [r4, #5]
 80022c2:	3a52      	subs	r2, #82	; 0x52
 80022c4:	71a2      	strb	r2, [r4, #6]
 80022c6:	2295      	movs	r2, #149	; 0x95
 80022c8:	71e2      	strb	r2, [r4, #7]
 80022ca:	3a17      	subs	r2, #23
 80022cc:	7222      	strb	r2, [r4, #8]
 80022ce:	2248      	movs	r2, #72	; 0x48
 80022d0:	7262      	strb	r2, [r4, #9]
 80022d2:	2278      	movs	r2, #120	; 0x78
 80022d4:	72a2      	strb	r2, [r4, #10]
 80022d6:	22cb      	movs	r2, #203	; 0xcb
 80022d8:	72e2      	strb	r2, [r4, #11]
 80022da:	322b      	adds	r2, #43	; 0x2b
 80022dc:	7322      	strb	r2, [r4, #12]
 80022de:	3aa0      	subs	r2, #160	; 0xa0
 80022e0:	7362      	strb	r2, [r4, #13]
 80022e2:	3a4d      	subs	r2, #77	; 0x4d
 80022e4:	73a2      	strb	r2, [r4, #14]
 80022e6:	32bc      	adds	r2, #188	; 0xbc
 80022e8:	73e2      	strb	r2, [r4, #15]
  ret =  aci_gatt_add_char(m_serviceHandles.m_environmentServiceHandle, //Handle of the service to which the characteristic has to be added.
 80022ea:	4a87      	ldr	r2, [pc, #540]	; (8002508 <LGS_AddEnvironmentService+0x2b8>)
  memcpy(&char_uuid.Char_UUID_128, uuid, 16); //Dest, Source, Length
 80022ec:	7126      	strb	r6, [r4, #4]
  ret =  aci_gatt_add_char(m_serviceHandles.m_environmentServiceHandle, //Handle of the service to which the characteristic has to be added.
 80022ee:	8850      	ldrh	r0, [r2, #2]
 80022f0:	4a86      	ldr	r2, [pc, #536]	; (800250c <LGS_AddEnvironmentService+0x2bc>)
 80022f2:	2510      	movs	r5, #16
 80022f4:	9205      	str	r2, [sp, #20]
 80022f6:	2204      	movs	r2, #4
 80022f8:	9304      	str	r3, [sp, #16]
 80022fa:	9202      	str	r2, [sp, #8]
 80022fc:	9301      	str	r3, [sp, #4]
 80022fe:	9503      	str	r5, [sp, #12]
 8002300:	3303      	adds	r3, #3
 8002302:	9500      	str	r5, [sp, #0]
 8002304:	0022      	movs	r2, r4
 8002306:	2102      	movs	r1, #2
 8002308:	f7ff f9e1 	bl	80016ce <aci_gatt_add_char>
 800230c:	1e03      	subs	r3, r0, #0
          ATTR_PERMISSION_NONE,										//Security permissions for the added characteristic
          GATT_NOTIFY_READ_REQ_AND_WAIT_FOR_APPL_RESP,				//Bit mask gattEvtMask
          16,														//encryKeySize 7-16bit
		  0,														//If the attribute has a variable length value field (1) or not (0).
		  &m_serviceHandles.m_environmentCharBrightHandle);			//Handle of the Characteristic that has been added.
  if (ret != BLE_STATUS_SUCCESS) {
 800230e:	d000      	beq.n	8002312 <LGS_AddEnvironmentService+0xc2>
 8002310:	e0f1      	b.n	80024f6 <LGS_AddEnvironmentService+0x2a6>
  }

  //Temperature Handle
  //###################################################################################################################################
  GET_ENVIRONMENT_CHAR_TEMP_UUID(uuid);
  memcpy(&char_uuid.Char_UUID_128, uuid, 16); //Dest, Source, Length
 8002312:	2220      	movs	r2, #32
 8002314:	7022      	strb	r2, [r4, #0]
 8002316:	3a09      	subs	r2, #9
 8002318:	7062      	strb	r2, [r4, #1]
 800231a:	3a08      	subs	r2, #8
 800231c:	70a2      	strb	r2, [r4, #2]
 800231e:	328d      	adds	r2, #141	; 0x8d
 8002320:	70e2      	strb	r2, [r4, #3]
 8002322:	2216      	movs	r2, #22
 8002324:	7122      	strb	r2, [r4, #4]
 8002326:	32d7      	adds	r2, #215	; 0xd7
 8002328:	7162      	strb	r2, [r4, #5]
 800232a:	3a6c      	subs	r2, #108	; 0x6c
 800232c:	71e2      	strb	r2, [r4, #7]
 800232e:	3a34      	subs	r2, #52	; 0x34
 8002330:	7262      	strb	r2, [r4, #9]
 8002332:	2243      	movs	r2, #67	; 0x43
 8002334:	72e2      	strb	r2, [r4, #11]
 8002336:	32a8      	adds	r2, #168	; 0xa8
 8002338:	7322      	strb	r2, [r4, #12]
 800233a:	3aba      	subs	r2, #186	; 0xba
 800233c:	73a2      	strb	r2, [r4, #14]
 800233e:	22b3      	movs	r2, #179	; 0xb3
 8002340:	71a6      	strb	r6, [r4, #6]
 8002342:	7227      	strb	r7, [r4, #8]
 8002344:	73e2      	strb	r2, [r4, #15]
 8002346:	3f9f      	subs	r7, #159	; 0x9f
  ret =  aci_gatt_add_char(m_serviceHandles.m_environmentServiceHandle, //Handle of the service to which the characteristic has to be added.
 8002348:	4a6f      	ldr	r2, [pc, #444]	; (8002508 <LGS_AddEnvironmentService+0x2b8>)
  memcpy(&char_uuid.Char_UUID_128, uuid, 16); //Dest, Source, Length
 800234a:	361d      	adds	r6, #29
 800234c:	72a6      	strb	r6, [r4, #10]
 800234e:	7367      	strb	r7, [r4, #13]
  ret =  aci_gatt_add_char(m_serviceHandles.m_environmentServiceHandle, //Handle of the service to which the characteristic has to be added.
 8002350:	8850      	ldrh	r0, [r2, #2]
 8002352:	4a6f      	ldr	r2, [pc, #444]	; (8002510 <LGS_AddEnvironmentService+0x2c0>)
 8002354:	9304      	str	r3, [sp, #16]
 8002356:	9205      	str	r2, [sp, #20]
 8002358:	2204      	movs	r2, #4
 800235a:	9301      	str	r3, [sp, #4]
 800235c:	9202      	str	r2, [sp, #8]
 800235e:	3303      	adds	r3, #3
 8002360:	9503      	str	r5, [sp, #12]
 8002362:	9500      	str	r5, [sp, #0]
 8002364:	0022      	movs	r2, r4
 8002366:	0039      	movs	r1, r7
 8002368:	f7ff f9b1 	bl	80016ce <aci_gatt_add_char>
 800236c:	1e03      	subs	r3, r0, #0
		  ATTR_PERMISSION_NONE,										//Security permissions for the added characteristic
		  GATT_NOTIFY_READ_REQ_AND_WAIT_FOR_APPL_RESP,				//Bit mask gattEvtMask
		  16,														//encryKeySize 7-16bit
		  0,														//If the attribute has a variable length value field (1) or not (0).
		  &m_serviceHandles.m_environmentCharTempHandle);			//Handle of the Characteristic that has been added.
  if (ret != BLE_STATUS_SUCCESS) {
 800236e:	d000      	beq.n	8002372 <LGS_AddEnvironmentService+0x122>
 8002370:	e0c1      	b.n	80024f6 <LGS_AddEnvironmentService+0x2a6>
  }

  //VOC Handle
  //###################################################################################################################################
  GET_ENVIRONMENT_CHAR_VOC_UUID(uuid);
  memcpy(&char_uuid.Char_UUID_128, uuid, 16); //Dest, Source, Length
 8002372:	2277      	movs	r2, #119	; 0x77
 8002374:	7022      	strb	r2, [r4, #0]
 8002376:	3201      	adds	r2, #1
 8002378:	7062      	strb	r2, [r4, #1]
 800237a:	224f      	movs	r2, #79	; 0x4f
 800237c:	70a2      	strb	r2, [r4, #2]
 800237e:	323f      	adds	r2, #63	; 0x3f
 8002380:	70e2      	strb	r2, [r4, #3]
 8002382:	227b      	movs	r2, #123	; 0x7b
 8002384:	7122      	strb	r2, [r4, #4]
 8002386:	327e      	adds	r2, #126	; 0x7e
 8002388:	7162      	strb	r2, [r4, #5]
 800238a:	3a5c      	subs	r2, #92	; 0x5c
 800238c:	71a2      	strb	r2, [r4, #6]
 800238e:	3a0a      	subs	r2, #10
 8002390:	71e2      	strb	r2, [r4, #7]
 8002392:	3224      	adds	r2, #36	; 0x24
 8002394:	7222      	strb	r2, [r4, #8]
 8002396:	2247      	movs	r2, #71	; 0x47
 8002398:	7262      	strb	r2, [r4, #9]
 800239a:	327a      	adds	r2, #122	; 0x7a
 800239c:	72a2      	strb	r2, [r4, #10]
 800239e:	3228      	adds	r2, #40	; 0x28
 80023a0:	7322      	strb	r2, [r4, #12]
 80023a2:	2214      	movs	r2, #20
 80023a4:	7362      	strb	r2, [r4, #13]
 80023a6:	329c      	adds	r2, #156	; 0x9c
 80023a8:	73a2      	strb	r2, [r4, #14]
 80023aa:	3a45      	subs	r2, #69	; 0x45
 80023ac:	73e2      	strb	r2, [r4, #15]
  ret =  aci_gatt_add_char(m_serviceHandles.m_environmentServiceHandle, //Handle of the service to which the characteristic has to be added.
 80023ae:	4a56      	ldr	r2, [pc, #344]	; (8002508 <LGS_AddEnvironmentService+0x2b8>)
  memcpy(&char_uuid.Char_UUID_128, uuid, 16); //Dest, Source, Length
 80023b0:	72e6      	strb	r6, [r4, #11]
  ret =  aci_gatt_add_char(m_serviceHandles.m_environmentServiceHandle, //Handle of the service to which the characteristic has to be added.
 80023b2:	8850      	ldrh	r0, [r2, #2]
 80023b4:	4a57      	ldr	r2, [pc, #348]	; (8002514 <LGS_AddEnvironmentService+0x2c4>)
 80023b6:	9304      	str	r3, [sp, #16]
 80023b8:	9205      	str	r2, [sp, #20]
 80023ba:	2204      	movs	r2, #4
 80023bc:	9301      	str	r3, [sp, #4]
 80023be:	9202      	str	r2, [sp, #8]
 80023c0:	0013      	movs	r3, r2
 80023c2:	9503      	str	r5, [sp, #12]
 80023c4:	9500      	str	r5, [sp, #0]
 80023c6:	0022      	movs	r2, r4
 80023c8:	0039      	movs	r1, r7
 80023ca:	f7ff f980 	bl	80016ce <aci_gatt_add_char>
 80023ce:	1e03      	subs	r3, r0, #0
		  ATTR_PERMISSION_NONE,										//Security permissions for the added characteristic
		  GATT_NOTIFY_READ_REQ_AND_WAIT_FOR_APPL_RESP,				//Bit mask gattEvtMask
		  16,														//encryKeySize 7-16bit
		  0,														//If the attribute has a variable length value field (1) or not (0).
		  &m_serviceHandles.m_environmentCharVOCHandle);			//Handle of the Characteristic that has been added.
  if (ret != BLE_STATUS_SUCCESS) {
 80023d0:	d000      	beq.n	80023d4 <LGS_AddEnvironmentService+0x184>
 80023d2:	e090      	b.n	80024f6 <LGS_AddEnvironmentService+0x2a6>
  }

  //CO2 Handle
  //###################################################################################################################################
  GET_ENVIRONMENT_CHAR_CO2_UUID(uuid);
  memcpy(&char_uuid.Char_UUID_128, uuid, 16); //Dest, Source, Length
 80023d4:	222c      	movs	r2, #44	; 0x2c
 80023d6:	7022      	strb	r2, [r4, #0]
 80023d8:	32ce      	adds	r2, #206	; 0xce
 80023da:	7062      	strb	r2, [r4, #1]
 80023dc:	3aee      	subs	r2, #238	; 0xee
 80023de:	70a2      	strb	r2, [r4, #2]
 80023e0:	3226      	adds	r2, #38	; 0x26
 80023e2:	70e2      	strb	r2, [r4, #3]
 80023e4:	3a2c      	subs	r2, #44	; 0x2c
 80023e6:	7122      	strb	r2, [r4, #4]
 80023e8:	224b      	movs	r2, #75	; 0x4b
 80023ea:	7162      	strb	r2, [r4, #5]
 80023ec:	325f      	adds	r2, #95	; 0x5f
 80023ee:	71a2      	strb	r2, [r4, #6]
 80023f0:	228f      	movs	r2, #143	; 0x8f
 80023f2:	71e2      	strb	r2, [r4, #7]
 80023f4:	322d      	adds	r2, #45	; 0x2d
 80023f6:	7222      	strb	r2, [r4, #8]
 80023f8:	3a76      	subs	r2, #118	; 0x76
 80023fa:	7262      	strb	r2, [r4, #9]
 80023fc:	3279      	adds	r2, #121	; 0x79
 80023fe:	72a2      	strb	r2, [r4, #10]
 8002400:	320e      	adds	r2, #14
 8002402:	72e2      	strb	r2, [r4, #11]
 8002404:	1952      	adds	r2, r2, r5
 8002406:	7322      	strb	r2, [r4, #12]
 8002408:	3a13      	subs	r2, #19
 800240a:	7362      	strb	r2, [r4, #13]
 800240c:	221f      	movs	r2, #31
 800240e:	73a2      	strb	r2, [r4, #14]
 8002410:	322f      	adds	r2, #47	; 0x2f
 8002412:	73e2      	strb	r2, [r4, #15]
  ret =  aci_gatt_add_char(m_serviceHandles.m_environmentServiceHandle, //Handle of the service to which the characteristic has to be added.
 8002414:	4a3c      	ldr	r2, [pc, #240]	; (8002508 <LGS_AddEnvironmentService+0x2b8>)
 8002416:	0039      	movs	r1, r7
 8002418:	8850      	ldrh	r0, [r2, #2]
 800241a:	4a3f      	ldr	r2, [pc, #252]	; (8002518 <LGS_AddEnvironmentService+0x2c8>)
 800241c:	9304      	str	r3, [sp, #16]
 800241e:	9205      	str	r2, [sp, #20]
 8002420:	2204      	movs	r2, #4
 8002422:	9301      	str	r3, [sp, #4]
 8002424:	9202      	str	r2, [sp, #8]
 8002426:	0013      	movs	r3, r2
 8002428:	9503      	str	r5, [sp, #12]
 800242a:	9500      	str	r5, [sp, #0]
 800242c:	0022      	movs	r2, r4
 800242e:	f7ff f94e 	bl	80016ce <aci_gatt_add_char>
 8002432:	1e03      	subs	r3, r0, #0
		  ATTR_PERMISSION_NONE,										//Security permissions for the added characteristic
		  GATT_NOTIFY_READ_REQ_AND_WAIT_FOR_APPL_RESP,				//Bit mask gattEvtMask
		  16,														//encryKeySize 7-16bit
		  0,														//If the attribute has a variable length value field (1) or not (0).
		  &m_serviceHandles.m_environmentCharCO2Handle);			//Handle of the Characteristic that has been added.
  if (ret != BLE_STATUS_SUCCESS) {
 8002434:	d15f      	bne.n	80024f6 <LGS_AddEnvironmentService+0x2a6>
  }

  //Humidity Handle
  //###################################################################################################################################
  GET_ENVIRONMENT_CHAR_HUMIDITY_UUID(uuid);
  memcpy(&char_uuid.Char_UUID_128, uuid, 16); //Dest, Source, Length
 8002436:	228e      	movs	r2, #142	; 0x8e
 8002438:	7022      	strb	r2, [r4, #0]
 800243a:	220a      	movs	r2, #10
 800243c:	70a2      	strb	r2, [r4, #2]
 800243e:	2219      	movs	r2, #25
 8002440:	70e2      	strb	r2, [r4, #3]
 8002442:	3278      	adds	r2, #120	; 0x78
 8002444:	7122      	strb	r2, [r4, #4]
 8002446:	3206      	adds	r2, #6
 8002448:	71a2      	strb	r2, [r4, #6]
 800244a:	3213      	adds	r2, #19
 800244c:	71e2      	strb	r2, [r4, #7]
 800244e:	22b7      	movs	r2, #183	; 0xb7
 8002450:	7222      	strb	r2, [r4, #8]
 8002452:	2244      	movs	r2, #68	; 0x44
 8002454:	7262      	strb	r2, [r4, #9]
 8002456:	3247      	adds	r2, #71	; 0x47
 8002458:	72a2      	strb	r2, [r4, #10]
 800245a:	321b      	adds	r2, #27
 800245c:	72e2      	strb	r2, [r4, #11]
 800245e:	3213      	adds	r2, #19
 8002460:	7322      	strb	r2, [r4, #12]
 8002462:	221c      	movs	r2, #28
 8002464:	7362      	strb	r2, [r4, #13]
 8002466:	3215      	adds	r2, #21
 8002468:	73a2      	strb	r2, [r4, #14]
 800246a:	224e      	movs	r2, #78	; 0x4e
 800246c:	7066      	strb	r6, [r4, #1]
 800246e:	73e2      	strb	r2, [r4, #15]
 8002470:	3605      	adds	r6, #5
  ret =  aci_gatt_add_char(m_serviceHandles.m_environmentServiceHandle, //Handle of the service to which the characteristic has to be added.
 8002472:	4a25      	ldr	r2, [pc, #148]	; (8002508 <LGS_AddEnvironmentService+0x2b8>)
  memcpy(&char_uuid.Char_UUID_128, uuid, 16); //Dest, Source, Length
 8002474:	7166      	strb	r6, [r4, #5]
  ret =  aci_gatt_add_char(m_serviceHandles.m_environmentServiceHandle, //Handle of the service to which the characteristic has to be added.
 8002476:	8850      	ldrh	r0, [r2, #2]
 8002478:	4a28      	ldr	r2, [pc, #160]	; (800251c <LGS_AddEnvironmentService+0x2cc>)
 800247a:	9304      	str	r3, [sp, #16]
 800247c:	9205      	str	r2, [sp, #20]
 800247e:	2204      	movs	r2, #4
 8002480:	9301      	str	r3, [sp, #4]
 8002482:	9202      	str	r2, [sp, #8]
 8002484:	3303      	adds	r3, #3
 8002486:	9503      	str	r5, [sp, #12]
 8002488:	9500      	str	r5, [sp, #0]
 800248a:	0022      	movs	r2, r4
 800248c:	0039      	movs	r1, r7
 800248e:	f7ff f91e 	bl	80016ce <aci_gatt_add_char>
 8002492:	1e03      	subs	r3, r0, #0
		  ATTR_PERMISSION_NONE,										//Security permissions for the added characteristic
		  GATT_NOTIFY_READ_REQ_AND_WAIT_FOR_APPL_RESP,				//Bit mask gattEvtMask
		  16,														//encryKeySize 7-16bit
		  0,														//If the attribute has a variable length value field (1) or not (0).
		  &m_serviceHandles.m_environmentCharHumidityHandle);		//Handle of the Characteristic that has been added.
  if (ret != BLE_STATUS_SUCCESS) {
 8002494:	d12f      	bne.n	80024f6 <LGS_AddEnvironmentService+0x2a6>
  }

  //Air Pressure Handle
  //###################################################################################################################################
  GET_ENVIRONMENT_CHAR_PRESSURE_UUID(uuid);
  memcpy(&char_uuid.Char_UUID_128, uuid, 16); //Dest, Source, Length
 8002496:	22aa      	movs	r2, #170	; 0xaa
 8002498:	7022      	strb	r2, [r4, #0]
 800249a:	225d      	movs	r2, #93	; 0x5d
 800249c:	70a2      	strb	r2, [r4, #2]
 800249e:	22b9      	movs	r2, #185	; 0xb9
 80024a0:	70e2      	strb	r2, [r4, #3]
 80024a2:	228c      	movs	r2, #140	; 0x8c
 80024a4:	7122      	strb	r2, [r4, #4]
 80024a6:	323b      	adds	r2, #59	; 0x3b
 80024a8:	7162      	strb	r2, [r4, #5]
 80024aa:	3ac1      	subs	r2, #193	; 0xc1
 80024ac:	71a2      	strb	r2, [r4, #6]
 80024ae:	2290      	movs	r2, #144	; 0x90
 80024b0:	71e2      	strb	r2, [r4, #7]
 80024b2:	3a30      	subs	r2, #48	; 0x30
 80024b4:	7222      	strb	r2, [r4, #8]
 80024b6:	3a18      	subs	r2, #24
 80024b8:	7262      	strb	r2, [r4, #9]
 80024ba:	2273      	movs	r2, #115	; 0x73
 80024bc:	72a2      	strb	r2, [r4, #10]
 80024be:	3276      	adds	r2, #118	; 0x76
 80024c0:	72e2      	strb	r2, [r4, #11]
 80024c2:	2299      	movs	r2, #153	; 0x99
 80024c4:	7322      	strb	r2, [r4, #12]
 80024c6:	3a1b      	subs	r2, #27
 80024c8:	7362      	strb	r2, [r4, #13]
 80024ca:	226b      	movs	r2, #107	; 0x6b
 80024cc:	73a2      	strb	r2, [r4, #14]
 80024ce:	2266      	movs	r2, #102	; 0x66
 80024d0:	73e2      	strb	r2, [r4, #15]
  ret =  aci_gatt_add_char(m_serviceHandles.m_environmentServiceHandle, //Handle of the service to which the characteristic has to be added.
 80024d2:	4a0d      	ldr	r2, [pc, #52]	; (8002508 <LGS_AddEnvironmentService+0x2b8>)
  memcpy(&char_uuid.Char_UUID_128, uuid, 16); //Dest, Source, Length
 80024d4:	7066      	strb	r6, [r4, #1]
  ret =  aci_gatt_add_char(m_serviceHandles.m_environmentServiceHandle, //Handle of the service to which the characteristic has to be added.
 80024d6:	8850      	ldrh	r0, [r2, #2]
 80024d8:	4a11      	ldr	r2, [pc, #68]	; (8002520 <LGS_AddEnvironmentService+0x2d0>)
 80024da:	9304      	str	r3, [sp, #16]
 80024dc:	9205      	str	r2, [sp, #20]
 80024de:	2204      	movs	r2, #4
 80024e0:	9301      	str	r3, [sp, #4]
 80024e2:	9202      	str	r2, [sp, #8]
 80024e4:	0013      	movs	r3, r2
 80024e6:	9503      	str	r5, [sp, #12]
 80024e8:	9500      	str	r5, [sp, #0]
 80024ea:	0022      	movs	r2, r4
 80024ec:	0039      	movs	r1, r7
 80024ee:	f7ff f8ee 	bl	80016ce <aci_gatt_add_char>
		  ATTR_PERMISSION_NONE,										//Security permissions for the added characteristic
		  GATT_NOTIFY_READ_REQ_AND_WAIT_FOR_APPL_RESP,				//Bit mask gattEvtMask
		  16,														//encryKeySize 7-16bit
		  0,														//If the attribute has a variable length value field (1) or not (0).
		  &m_serviceHandles.m_environmentCharPressureHandle);		//Handle of the Characteristic that has been added.
  if (ret != BLE_STATUS_SUCCESS) {
 80024f2:	2800      	cmp	r0, #0
 80024f4:	d000      	beq.n	80024f8 <LGS_AddEnvironmentService+0x2a8>

  return BLE_STATUS_SUCCESS;

  //###################################################################################################################################
fail:
  return BLE_STATUS_ERROR;
 80024f6:	2047      	movs	r0, #71	; 0x47
}
 80024f8:	b007      	add	sp, #28
 80024fa:	bdf0      	pop	{r4, r5, r6, r7, pc}
 80024fc:	200004b6 	.word	0x200004b6
 8002500:	200004c8 	.word	0x200004c8
 8002504:	20000496 	.word	0x20000496
 8002508:	200004c6 	.word	0x200004c6
 800250c:	200004ce 	.word	0x200004ce
 8002510:	200004d0 	.word	0x200004d0
 8002514:	200004d2 	.word	0x200004d2
 8002518:	200004d4 	.word	0x200004d4
 800251c:	200004d6 	.word	0x200004d6
 8002520:	200004d8 	.word	0x200004d8

08002524 <LGS_BLE_Init>:
{
 8002524:	b530      	push	{r4, r5, lr}
	getBlueNRGVersion(&hwVersion, &fwVersion);	//Get Hard-/Firmware Version
 8002526:	2516      	movs	r5, #22
 8002528:	2415      	movs	r4, #21
{
 800252a:	b087      	sub	sp, #28
	BSP_LED_Init(LED2);
 800252c:	2000      	movs	r0, #0
 800252e:	f000 f9bb 	bl	80028a8 <BSP_LED_Init>
	getBlueNRGVersion(&hwVersion, &fwVersion);	//Get Hard-/Firmware Version
 8002532:	446c      	add	r4, sp
	hci_init(LGS_UserNotify, NULL);				//Initialize HCI (Host-Controller-Interface) Callback
 8002534:	2100      	movs	r1, #0
 8002536:	4828      	ldr	r0, [pc, #160]	; (80025d8 <LGS_BLE_Init+0xb4>)
	getBlueNRGVersion(&hwVersion, &fwVersion);	//Get Hard-/Firmware Version
 8002538:	446d      	add	r5, sp
	hci_init(LGS_UserNotify, NULL);				//Initialize HCI (Host-Controller-Interface) Callback
 800253a:	f7ff fa7f 	bl	8001a3c <hci_init>
	getBlueNRGVersion(&hwVersion, &fwVersion);	//Get Hard-/Firmware Version
 800253e:	0029      	movs	r1, r5
 8002540:	0020      	movs	r0, r4
 8002542:	f7ff f9c1 	bl	80018c8 <getBlueNRGVersion>
	hci_reset(); 								//Reset HCI (Notwendig um MAC Adresse zu ndern)
 8002546:	f7ff f9e0 	bl	800190a <hci_reset>
	HAL_Delay(100);								//100ms warten
 800254a:	2064      	movs	r0, #100	; 0x64
 800254c:	f7fd ffd6 	bl	80004fc <HAL_Delay>
	LGS_SetAddress(bdaddr,hwVersion, fwVersion);//Call LGS_SetAddress to define MAC Adress
 8002550:	7821      	ldrb	r1, [r4, #0]
 8002552:	4c22      	ldr	r4, [pc, #136]	; (80025dc <LGS_BLE_Init+0xb8>)
 8002554:	882a      	ldrh	r2, [r5, #0]
 8002556:	0020      	movs	r0, r4
 8002558:	f7ff fd54 	bl	8002004 <LGS_SetAddress>
	ret = aci_hal_write_config_data(CONFIG_DATA_PUBADDR_OFFSET,
 800255c:	0022      	movs	r2, r4
 800255e:	2106      	movs	r1, #6
 8002560:	2000      	movs	r0, #0
 8002562:	f7ff f962 	bl	800182a <aci_hal_write_config_data>
	if (ret) while(1);							//Fehler? -> while(1)
 8002566:	2800      	cmp	r0, #0
 8002568:	d000      	beq.n	800256c <LGS_BLE_Init+0x48>
 800256a:	e7fe      	b.n	800256a <LGS_BLE_Init+0x46>
	ret = aci_gatt_init();  					//Init GATT
 800256c:	f7ff f857 	bl	800161e <aci_gatt_init>
 8002570:	1e01      	subs	r1, r0, #0
	if (ret) while(1);							//Fehler? -> while(1)
 8002572:	d000      	beq.n	8002576 <LGS_BLE_Init+0x52>
 8002574:	e7fe      	b.n	8002574 <LGS_BLE_Init+0x50>
	ret = aci_gap_init_IDB05A1(
 8002576:	4b1a      	ldr	r3, [pc, #104]	; (80025e0 <LGS_BLE_Init+0xbc>)
 8002578:	4c1a      	ldr	r4, [pc, #104]	; (80025e4 <LGS_BLE_Init+0xc0>)
 800257a:	9301      	str	r3, [sp, #4]
 800257c:	4b1a      	ldr	r3, [pc, #104]	; (80025e8 <LGS_BLE_Init+0xc4>)
 800257e:	2203      	movs	r2, #3
 8002580:	9300      	str	r3, [sp, #0]
 8002582:	2001      	movs	r0, #1
 8002584:	0023      	movs	r3, r4
 8002586:	f7fe ff37 	bl	80013f8 <aci_gap_init_IDB05A1>
 800258a:	1e02      	subs	r2, r0, #0
	if (ret) while(1);							//Fehler? -> while(1)
 800258c:	d000      	beq.n	8002590 <LGS_BLE_Init+0x6c>
 800258e:	e7fe      	b.n	800258e <LGS_BLE_Init+0x6a>
	ret = aci_gatt_update_char_value(
 8002590:	4b16      	ldr	r3, [pc, #88]	; (80025ec <LGS_BLE_Init+0xc8>)
 8002592:	88a1      	ldrh	r1, [r4, #4]
 8002594:	8820      	ldrh	r0, [r4, #0]
 8002596:	9300      	str	r3, [sp, #0]
 8002598:	2303      	movs	r3, #3
 800259a:	f7ff f8f4 	bl	8001786 <aci_gatt_update_char_value>
 800259e:	1e01      	subs	r1, r0, #0
	if (ret) while(1);							//Fehler? -> while(1)
 80025a0:	d000      	beq.n	80025a4 <LGS_BLE_Init+0x80>
 80025a2:	e7fe      	b.n	80025a2 <LGS_BLE_Init+0x7e>
	ret = aci_gap_set_auth_requirement(
 80025a4:	4b12      	ldr	r3, [pc, #72]	; (80025f0 <LGS_BLE_Init+0xcc>)
 80025a6:	2401      	movs	r4, #1
 80025a8:	9302      	str	r3, [sp, #8]
 80025aa:	2310      	movs	r3, #16
 80025ac:	9001      	str	r0, [sp, #4]
 80025ae:	9300      	str	r3, [sp, #0]
 80025b0:	0002      	movs	r2, r0
 80025b2:	9403      	str	r4, [sp, #12]
 80025b4:	3b09      	subs	r3, #9
 80025b6:	0020      	movs	r0, r4
 80025b8:	f7fe ffbd 	bl	8001536 <aci_gap_set_auth_requirement>
	if (ret) while(1);							//Fehler? -> while(1)
 80025bc:	2800      	cmp	r0, #0
 80025be:	d000      	beq.n	80025c2 <LGS_BLE_Init+0x9e>
 80025c0:	e7fe      	b.n	80025c0 <LGS_BLE_Init+0x9c>
	ret = LGS_AddEnvironmentService();			//Init Environment Service
 80025c2:	f7ff fe45 	bl	8002250 <LGS_AddEnvironmentService>
	if (ret) while(1);							//Fehler? -> while(1)
 80025c6:	2800      	cmp	r0, #0
 80025c8:	d000      	beq.n	80025cc <LGS_BLE_Init+0xa8>
 80025ca:	e7fe      	b.n	80025ca <LGS_BLE_Init+0xa6>
	(void)aci_hal_set_tx_power_level(
 80025cc:	2107      	movs	r1, #7
 80025ce:	0020      	movs	r0, r4
 80025d0:	f7ff f958 	bl	8001884 <aci_hal_set_tx_power_level>
}
 80025d4:	b007      	add	sp, #28
 80025d6:	bd30      	pop	{r4, r5, pc}
 80025d8:	08002629 	.word	0x08002629
 80025dc:	20000490 	.word	0x20000490
 80025e0:	200004cc 	.word	0x200004cc
 80025e4:	200004c6 	.word	0x200004c6
 80025e8:	200004ca 	.word	0x200004ca
 80025ec:	08002ca2 	.word	0x08002ca2
 80025f0:	0001e240 	.word	0x0001e240

080025f4 <GAP_DisconnectionComplete_CB>:
 * @param  None
 * @retval None
 */
void GAP_DisconnectionComplete_CB(void)
{
  connected = FALSE;
 80025f4:	2300      	movs	r3, #0
  PRINTF("Disconnected\n");
  /* Make the device connectable again. */
  set_connectable = TRUE;
 80025f6:	2101      	movs	r1, #1
  connected = FALSE;
 80025f8:	4a03      	ldr	r2, [pc, #12]	; (8002608 <GAP_DisconnectionComplete_CB+0x14>)
 80025fa:	6013      	str	r3, [r2, #0]
  set_connectable = TRUE;
 80025fc:	4a03      	ldr	r2, [pc, #12]	; (800260c <GAP_DisconnectionComplete_CB+0x18>)
 80025fe:	7011      	strb	r1, [r2, #0]
  notification_enabled = FALSE;
 8002600:	4a03      	ldr	r2, [pc, #12]	; (8002610 <GAP_DisconnectionComplete_CB+0x1c>)
 8002602:	7013      	strb	r3, [r2, #0]
}
 8002604:	4770      	bx	lr
 8002606:	46c0      	nop			; (mov r8, r8)
 8002608:	200004a8 	.word	0x200004a8
 800260c:	20000000 	.word	0x20000000
 8002610:	20000466 	.word	0x20000466

08002614 <Read_Request_CB>:
*******************************************************************************/
void Read_Request_CB(uint16_t handle)
{
  tBleStatus ret;

  if(connection_handle !=0)
 8002614:	4b03      	ldr	r3, [pc, #12]	; (8002624 <Read_Request_CB+0x10>)
{
 8002616:	b510      	push	{r4, lr}
  if(connection_handle !=0)
 8002618:	8818      	ldrh	r0, [r3, #0]
 800261a:	2800      	cmp	r0, #0
 800261c:	d001      	beq.n	8002622 <Read_Request_CB+0xe>
  {
    ret = aci_gatt_allow_read(connection_handle);
 800261e:	f7ff f8e1 	bl	80017e4 <aci_gatt_allow_read>
    if (ret != BLE_STATUS_SUCCESS)
    {
      PRINTF("aci_gatt_allow_read() failed: 0x%02x\r\n", ret);
    }
  }
}
 8002622:	bd10      	pop	{r4, pc}
 8002624:	20000464 	.word	0x20000464

08002628 <LGS_UserNotify>:
  if(hci_pckt->type != HCI_EVENT_PKT)
 8002628:	7803      	ldrb	r3, [r0, #0]
{
 800262a:	b510      	push	{r4, lr}
  if(hci_pckt->type != HCI_EVENT_PKT)
 800262c:	2b04      	cmp	r3, #4
 800262e:	d108      	bne.n	8002642 <LGS_UserNotify+0x1a>
  switch(event_pckt->evt)
 8002630:	7843      	ldrb	r3, [r0, #1]
 8002632:	2b3e      	cmp	r3, #62	; 0x3e
 8002634:	d006      	beq.n	8002644 <LGS_UserNotify+0x1c>
 8002636:	2bff      	cmp	r3, #255	; 0xff
 8002638:	d010      	beq.n	800265c <LGS_UserNotify+0x34>
 800263a:	2b05      	cmp	r3, #5
 800263c:	d101      	bne.n	8002642 <LGS_UserNotify+0x1a>
      GAP_DisconnectionComplete_CB();
 800263e:	f7ff ffd9 	bl	80025f4 <GAP_DisconnectionComplete_CB>
}
 8002642:	bd10      	pop	{r4, pc}
      switch(evt->subevent)
 8002644:	78c2      	ldrb	r2, [r0, #3]
 8002646:	2a01      	cmp	r2, #1
 8002648:	d1fb      	bne.n	8002642 <LGS_UserNotify+0x1a>
          GAP_ConnectionComplete_CB(cc->peer_bdaddr, cc->handle);
 800264a:	7983      	ldrb	r3, [r0, #6]
 800264c:	7941      	ldrb	r1, [r0, #5]
 800264e:	021b      	lsls	r3, r3, #8
 8002650:	430b      	orrs	r3, r1
  connected = TRUE;
 8002652:	490a      	ldr	r1, [pc, #40]	; (800267c <LGS_UserNotify+0x54>)
 8002654:	600a      	str	r2, [r1, #0]
  connection_handle = handle;
 8002656:	4a0a      	ldr	r2, [pc, #40]	; (8002680 <LGS_UserNotify+0x58>)
 8002658:	8013      	strh	r3, [r2, #0]
 800265a:	e7f2      	b.n	8002642 <LGS_UserNotify+0x1a>
      switch(blue_evt->ecode){
 800265c:	7903      	ldrb	r3, [r0, #4]
 800265e:	78c2      	ldrb	r2, [r0, #3]
 8002660:	021b      	lsls	r3, r3, #8
 8002662:	4313      	orrs	r3, r2
 8002664:	4a07      	ldr	r2, [pc, #28]	; (8002684 <LGS_UserNotify+0x5c>)
 8002666:	4293      	cmp	r3, r2
 8002668:	d1eb      	bne.n	8002642 <LGS_UserNotify+0x1a>
          Read_Request_CB(pr->attr_handle);
 800266a:	79c3      	ldrb	r3, [r0, #7]
 800266c:	3005      	adds	r0, #5
 800266e:	78c0      	ldrb	r0, [r0, #3]
 8002670:	0200      	lsls	r0, r0, #8
 8002672:	4318      	orrs	r0, r3
 8002674:	f7ff ffce 	bl	8002614 <Read_Request_CB>
        break;
 8002678:	e7e3      	b.n	8002642 <LGS_UserNotify+0x1a>
 800267a:	46c0      	nop			; (mov r8, r8)
 800267c:	200004a8 	.word	0x200004a8
 8002680:	20000464 	.word	0x20000464
 8002684:	00000c14 	.word	0x00000c14

08002688 <SystemClock_Config>:
/**
  * @brief System Clock Configuration
  * @retval None
  */
void SystemClock_Config(void)
{
 8002688:	b510      	push	{r4, lr}
 800268a:	b09c      	sub	sp, #112	; 0x70
  RCC_OscInitTypeDef RCC_OscInitStruct = {0};
 800268c:	2238      	movs	r2, #56	; 0x38
 800268e:	2100      	movs	r1, #0
 8002690:	a80e      	add	r0, sp, #56	; 0x38
 8002692:	f000 f9f6 	bl	8002a82 <memset>
  RCC_ClkInitTypeDef RCC_ClkInitStruct = {0};
 8002696:	2214      	movs	r2, #20
 8002698:	2100      	movs	r1, #0
 800269a:	4668      	mov	r0, sp
 800269c:	f000 f9f1 	bl	8002a82 <memset>
  RCC_PeriphCLKInitTypeDef PeriphClkInit = {0};
 80026a0:	2224      	movs	r2, #36	; 0x24
 80026a2:	2100      	movs	r1, #0
 80026a4:	a805      	add	r0, sp, #20
 80026a6:	f000 f9ec 	bl	8002a82 <memset>

  /**Configure the main internal regulator output voltage 
  */
  __HAL_PWR_VOLTAGESCALING_CONFIG(PWR_REGULATOR_VOLTAGE_SCALE1);
 80026aa:	4913      	ldr	r1, [pc, #76]	; (80026f8 <SystemClock_Config+0x70>)
 80026ac:	4a13      	ldr	r2, [pc, #76]	; (80026fc <SystemClock_Config+0x74>)
 80026ae:	680b      	ldr	r3, [r1, #0]
  /**Initializes the CPU, AHB and APB busses clocks 
  */
  RCC_OscInitStruct.OscillatorType = RCC_OSCILLATORTYPE_MSI;
  RCC_OscInitStruct.MSIState = RCC_MSI_ON;
  RCC_OscInitStruct.MSICalibrationValue = 0;
 80026b0:	2400      	movs	r4, #0
  __HAL_PWR_VOLTAGESCALING_CONFIG(PWR_REGULATOR_VOLTAGE_SCALE1);
 80026b2:	401a      	ands	r2, r3
 80026b4:	2380      	movs	r3, #128	; 0x80
 80026b6:	011b      	lsls	r3, r3, #4
 80026b8:	4313      	orrs	r3, r2
 80026ba:	600b      	str	r3, [r1, #0]
  RCC_OscInitStruct.OscillatorType = RCC_OSCILLATORTYPE_MSI;
 80026bc:	2310      	movs	r3, #16
 80026be:	930e      	str	r3, [sp, #56]	; 0x38
  RCC_OscInitStruct.MSIState = RCC_MSI_ON;
 80026c0:	3b0f      	subs	r3, #15
 80026c2:	9315      	str	r3, [sp, #84]	; 0x54
  RCC_OscInitStruct.MSIClockRange = RCC_MSIRANGE_5;
 80026c4:	23a0      	movs	r3, #160	; 0xa0
  RCC_OscInitStruct.PLL.PLLState = RCC_PLL_NONE;
  if (HAL_RCC_OscConfig(&RCC_OscInitStruct) != HAL_OK)
 80026c6:	a80e      	add	r0, sp, #56	; 0x38
  RCC_OscInitStruct.MSIClockRange = RCC_MSIRANGE_5;
 80026c8:	021b      	lsls	r3, r3, #8
 80026ca:	9317      	str	r3, [sp, #92]	; 0x5c
  RCC_OscInitStruct.MSICalibrationValue = 0;
 80026cc:	9416      	str	r4, [sp, #88]	; 0x58
  RCC_OscInitStruct.PLL.PLLState = RCC_PLL_NONE;
 80026ce:	9418      	str	r4, [sp, #96]	; 0x60
  if (HAL_RCC_OscConfig(&RCC_OscInitStruct) != HAL_OK)
 80026d0:	f7fe f8f6 	bl	80008c0 <HAL_RCC_OscConfig>
  {
    Error_Handler();
  }
  /**Initializes the CPU, AHB and APB busses clocks 
  */
  RCC_ClkInitStruct.ClockType = RCC_CLOCKTYPE_HCLK|RCC_CLOCKTYPE_SYSCLK
 80026d4:	230f      	movs	r3, #15
  RCC_ClkInitStruct.SYSCLKSource = RCC_SYSCLKSOURCE_MSI;
  RCC_ClkInitStruct.AHBCLKDivider = RCC_SYSCLK_DIV1;
  RCC_ClkInitStruct.APB1CLKDivider = RCC_HCLK_DIV1;
  RCC_ClkInitStruct.APB2CLKDivider = RCC_HCLK_DIV1;

  if (HAL_RCC_ClockConfig(&RCC_ClkInitStruct, FLASH_LATENCY_0) != HAL_OK)
 80026d6:	0021      	movs	r1, r4
 80026d8:	4668      	mov	r0, sp
  RCC_ClkInitStruct.ClockType = RCC_CLOCKTYPE_HCLK|RCC_CLOCKTYPE_SYSCLK
 80026da:	9300      	str	r3, [sp, #0]
  RCC_ClkInitStruct.SYSCLKSource = RCC_SYSCLKSOURCE_MSI;
 80026dc:	9401      	str	r4, [sp, #4]
  RCC_ClkInitStruct.AHBCLKDivider = RCC_SYSCLK_DIV1;
 80026de:	9402      	str	r4, [sp, #8]
  RCC_ClkInitStruct.APB1CLKDivider = RCC_HCLK_DIV1;
 80026e0:	9403      	str	r4, [sp, #12]
  RCC_ClkInitStruct.APB2CLKDivider = RCC_HCLK_DIV1;
 80026e2:	9404      	str	r4, [sp, #16]
  if (HAL_RCC_ClockConfig(&RCC_ClkInitStruct, FLASH_LATENCY_0) != HAL_OK)
 80026e4:	f7fe fb6c 	bl	8000dc0 <HAL_RCC_ClockConfig>
  {
    Error_Handler();
  }
  PeriphClkInit.PeriphClockSelection = RCC_PERIPHCLK_USART2;
 80026e8:	2302      	movs	r3, #2
  PeriphClkInit.Usart2ClockSelection = RCC_USART2CLKSOURCE_PCLK1;
  if (HAL_RCCEx_PeriphCLKConfig(&PeriphClkInit) != HAL_OK)
 80026ea:	a805      	add	r0, sp, #20
  PeriphClkInit.PeriphClockSelection = RCC_PERIPHCLK_USART2;
 80026ec:	9305      	str	r3, [sp, #20]
  PeriphClkInit.Usart2ClockSelection = RCC_USART2CLKSOURCE_PCLK1;
 80026ee:	9409      	str	r4, [sp, #36]	; 0x24
  if (HAL_RCCEx_PeriphCLKConfig(&PeriphClkInit) != HAL_OK)
 80026f0:	f7fe fc1e 	bl	8000f30 <HAL_RCCEx_PeriphCLKConfig>
  {
    Error_Handler();
  }
}
 80026f4:	b01c      	add	sp, #112	; 0x70
 80026f6:	bd10      	pop	{r4, pc}
 80026f8:	40007000 	.word	0x40007000
 80026fc:	ffffe7ff 	.word	0xffffe7ff

08002700 <main>:
{
 8002700:	b570      	push	{r4, r5, r6, lr}
 8002702:	b08a      	sub	sp, #40	; 0x28
  HAL_Init();
 8002704:	f7fd fed8 	bl	80004b8 <HAL_Init>
  SystemClock_Config();
 8002708:	f7ff ffbe 	bl	8002688 <SystemClock_Config>
  * @param None
  * @retval None
  */
static void MX_GPIO_Init(void)
{
  GPIO_InitTypeDef GPIO_InitStruct = {0};
 800270c:	2214      	movs	r2, #20
 800270e:	2100      	movs	r1, #0
 8002710:	a805      	add	r0, sp, #20
 8002712:	f000 f9b6 	bl	8002a82 <memset>

  /* GPIO Ports Clock Enable */
  __HAL_RCC_GPIOC_CLK_ENABLE();
 8002716:	2004      	movs	r0, #4
 8002718:	4b28      	ldr	r3, [pc, #160]	; (80027bc <main+0xbc>)
  __HAL_RCC_GPIOH_CLK_ENABLE();
  __HAL_RCC_GPIOA_CLK_ENABLE();
 800271a:	2501      	movs	r5, #1
  __HAL_RCC_GPIOC_CLK_ENABLE();
 800271c:	6ad9      	ldr	r1, [r3, #44]	; 0x2c
  __HAL_RCC_GPIOB_CLK_ENABLE();

  /*Configure GPIO pin Output Level */
  HAL_GPIO_WritePin(GPIOA, GPIO_PIN_1|LD2_Pin|GPIO_PIN_8, GPIO_PIN_RESET);
 800271e:	2691      	movs	r6, #145	; 0x91
  __HAL_RCC_GPIOC_CLK_ENABLE();
 8002720:	4301      	orrs	r1, r0
 8002722:	62d9      	str	r1, [r3, #44]	; 0x2c
 8002724:	6ada      	ldr	r2, [r3, #44]	; 0x2c
  HAL_GPIO_WritePin(GPIOA, GPIO_PIN_1|LD2_Pin|GPIO_PIN_8, GPIO_PIN_RESET);
 8002726:	0076      	lsls	r6, r6, #1
  __HAL_RCC_GPIOC_CLK_ENABLE();
 8002728:	4002      	ands	r2, r0
 800272a:	9201      	str	r2, [sp, #4]
 800272c:	9a01      	ldr	r2, [sp, #4]
  __HAL_RCC_GPIOH_CLK_ENABLE();
 800272e:	6ad9      	ldr	r1, [r3, #44]	; 0x2c
 8002730:	307c      	adds	r0, #124	; 0x7c
 8002732:	4301      	orrs	r1, r0
 8002734:	62d9      	str	r1, [r3, #44]	; 0x2c
  __HAL_RCC_GPIOB_CLK_ENABLE();
 8002736:	2102      	movs	r1, #2
  __HAL_RCC_GPIOH_CLK_ENABLE();
 8002738:	6ada      	ldr	r2, [r3, #44]	; 0x2c

  /*Configure GPIO pin : B1_Pin */
  GPIO_InitStruct.Pin = B1_Pin;
  GPIO_InitStruct.Mode = GPIO_MODE_IT_FALLING;
  GPIO_InitStruct.Pull = GPIO_NOPULL;
 800273a:	2400      	movs	r4, #0
  __HAL_RCC_GPIOH_CLK_ENABLE();
 800273c:	4002      	ands	r2, r0
  HAL_GPIO_WritePin(GPIOA, GPIO_PIN_1|LD2_Pin|GPIO_PIN_8, GPIO_PIN_RESET);
 800273e:	20a0      	movs	r0, #160	; 0xa0
  __HAL_RCC_GPIOH_CLK_ENABLE();
 8002740:	9202      	str	r2, [sp, #8]
 8002742:	9a02      	ldr	r2, [sp, #8]
  __HAL_RCC_GPIOA_CLK_ENABLE();
 8002744:	6ada      	ldr	r2, [r3, #44]	; 0x2c
  HAL_GPIO_WritePin(GPIOA, GPIO_PIN_1|LD2_Pin|GPIO_PIN_8, GPIO_PIN_RESET);
 8002746:	05c0      	lsls	r0, r0, #23
  __HAL_RCC_GPIOA_CLK_ENABLE();
 8002748:	432a      	orrs	r2, r5
 800274a:	62da      	str	r2, [r3, #44]	; 0x2c
 800274c:	6ada      	ldr	r2, [r3, #44]	; 0x2c
 800274e:	402a      	ands	r2, r5
 8002750:	9203      	str	r2, [sp, #12]
 8002752:	9a03      	ldr	r2, [sp, #12]
  __HAL_RCC_GPIOB_CLK_ENABLE();
 8002754:	6ada      	ldr	r2, [r3, #44]	; 0x2c
 8002756:	430a      	orrs	r2, r1
 8002758:	62da      	str	r2, [r3, #44]	; 0x2c
 800275a:	6adb      	ldr	r3, [r3, #44]	; 0x2c
  HAL_GPIO_WritePin(GPIOA, GPIO_PIN_1|LD2_Pin|GPIO_PIN_8, GPIO_PIN_RESET);
 800275c:	2200      	movs	r2, #0
  __HAL_RCC_GPIOB_CLK_ENABLE();
 800275e:	400b      	ands	r3, r1
 8002760:	9304      	str	r3, [sp, #16]
  HAL_GPIO_WritePin(GPIOA, GPIO_PIN_1|LD2_Pin|GPIO_PIN_8, GPIO_PIN_RESET);
 8002762:	0031      	movs	r1, r6
  __HAL_RCC_GPIOB_CLK_ENABLE();
 8002764:	9b04      	ldr	r3, [sp, #16]
  HAL_GPIO_WritePin(GPIOA, GPIO_PIN_1|LD2_Pin|GPIO_PIN_8, GPIO_PIN_RESET);
 8002766:	f7fe f865 	bl	8000834 <HAL_GPIO_WritePin>
  GPIO_InitStruct.Pin = B1_Pin;
 800276a:	2380      	movs	r3, #128	; 0x80
 800276c:	019b      	lsls	r3, r3, #6
 800276e:	9305      	str	r3, [sp, #20]
  GPIO_InitStruct.Mode = GPIO_MODE_IT_FALLING;
 8002770:	4b13      	ldr	r3, [pc, #76]	; (80027c0 <main+0xc0>)
  HAL_GPIO_Init(B1_GPIO_Port, &GPIO_InitStruct);
 8002772:	a905      	add	r1, sp, #20
 8002774:	4813      	ldr	r0, [pc, #76]	; (80027c4 <main+0xc4>)
  GPIO_InitStruct.Mode = GPIO_MODE_IT_FALLING;
 8002776:	9306      	str	r3, [sp, #24]
  GPIO_InitStruct.Pull = GPIO_NOPULL;
 8002778:	9407      	str	r4, [sp, #28]
  HAL_GPIO_Init(B1_GPIO_Port, &GPIO_InitStruct);
 800277a:	f7fd ff23 	bl	80005c4 <HAL_GPIO_Init>

  /*Configure GPIO pin : PA0 */
  GPIO_InitStruct.Pin = GPIO_PIN_0;
  GPIO_InitStruct.Mode = GPIO_MODE_IT_RISING;
  GPIO_InitStruct.Pull = GPIO_NOPULL;
  HAL_GPIO_Init(GPIOA, &GPIO_InitStruct);
 800277e:	20a0      	movs	r0, #160	; 0xa0
  GPIO_InitStruct.Mode = GPIO_MODE_IT_RISING;
 8002780:	4b11      	ldr	r3, [pc, #68]	; (80027c8 <main+0xc8>)
  HAL_GPIO_Init(GPIOA, &GPIO_InitStruct);
 8002782:	a905      	add	r1, sp, #20
 8002784:	05c0      	lsls	r0, r0, #23
  GPIO_InitStruct.Mode = GPIO_MODE_IT_RISING;
 8002786:	9306      	str	r3, [sp, #24]
  GPIO_InitStruct.Pin = GPIO_PIN_0;
 8002788:	9505      	str	r5, [sp, #20]
  GPIO_InitStruct.Pull = GPIO_NOPULL;
 800278a:	9407      	str	r4, [sp, #28]
  HAL_GPIO_Init(GPIOA, &GPIO_InitStruct);
 800278c:	f7fd ff1a 	bl	80005c4 <HAL_GPIO_Init>
  /*Configure GPIO pins : PA1 LD2_Pin PA8 */
  GPIO_InitStruct.Pin = GPIO_PIN_1|LD2_Pin|GPIO_PIN_8;
  GPIO_InitStruct.Mode = GPIO_MODE_OUTPUT_PP;
  GPIO_InitStruct.Pull = GPIO_NOPULL;
  GPIO_InitStruct.Speed = GPIO_SPEED_FREQ_LOW;
  HAL_GPIO_Init(GPIOA, &GPIO_InitStruct);
 8002790:	20a0      	movs	r0, #160	; 0xa0
 8002792:	a905      	add	r1, sp, #20
 8002794:	05c0      	lsls	r0, r0, #23
  GPIO_InitStruct.Pin = GPIO_PIN_1|LD2_Pin|GPIO_PIN_8;
 8002796:	9605      	str	r6, [sp, #20]
  GPIO_InitStruct.Mode = GPIO_MODE_OUTPUT_PP;
 8002798:	9506      	str	r5, [sp, #24]
  GPIO_InitStruct.Pull = GPIO_NOPULL;
 800279a:	9407      	str	r4, [sp, #28]
  GPIO_InitStruct.Speed = GPIO_SPEED_FREQ_LOW;
 800279c:	9408      	str	r4, [sp, #32]
  HAL_GPIO_Init(GPIOA, &GPIO_InitStruct);
 800279e:	f7fd ff11 	bl	80005c4 <HAL_GPIO_Init>

  /* EXTI interrupt init*/
  HAL_NVIC_SetPriority(EXTI0_1_IRQn, 0, 0);
 80027a2:	0022      	movs	r2, r4
 80027a4:	0021      	movs	r1, r4
 80027a6:	2005      	movs	r0, #5
 80027a8:	f7fd feb8 	bl	800051c <HAL_NVIC_SetPriority>
  HAL_NVIC_EnableIRQ(EXTI0_1_IRQn);
 80027ac:	2005      	movs	r0, #5
 80027ae:	f7fd fee5 	bl	800057c <HAL_NVIC_EnableIRQ>
  LGS_BLE_Init();
 80027b2:	f7ff feb7 	bl	8002524 <LGS_BLE_Init>
	  LGS_BLE_Process();
 80027b6:	f7ff fd45 	bl	8002244 <LGS_BLE_Process>
 80027ba:	e7fc      	b.n	80027b6 <main+0xb6>
 80027bc:	40021000 	.word	0x40021000
 80027c0:	10210000 	.word	0x10210000
 80027c4:	50000800 	.word	0x50000800
 80027c8:	10110000 	.word	0x10110000

080027cc <BSP_SPI1_SendRecv>:
  */
int32_t BSP_SPI1_SendRecv(uint8_t *pTxData, uint8_t *pRxData, uint16_t len)
{
  int32_t ret = BSP_ERROR_UNKNOWN_FAILURE;
  
  if(HAL_SPI_TransmitReceive(&hspi1, pTxData, pRxData, len, TIMEOUT_DURATION) == HAL_OK)
 80027cc:	23fa      	movs	r3, #250	; 0xfa
{
 80027ce:	b513      	push	{r0, r1, r4, lr}
  if(HAL_SPI_TransmitReceive(&hspi1, pTxData, pRxData, len, TIMEOUT_DURATION) == HAL_OK)
 80027d0:	009b      	lsls	r3, r3, #2
{
 80027d2:	0014      	movs	r4, r2
  if(HAL_SPI_TransmitReceive(&hspi1, pTxData, pRxData, len, TIMEOUT_DURATION) == HAL_OK)
 80027d4:	9300      	str	r3, [sp, #0]
 80027d6:	0013      	movs	r3, r2
 80027d8:	000a      	movs	r2, r1
 80027da:	0001      	movs	r1, r0
 80027dc:	4804      	ldr	r0, [pc, #16]	; (80027f0 <BSP_SPI1_SendRecv+0x24>)
 80027de:	f7fe fd11 	bl	8001204 <HAL_SPI_TransmitReceive>
 80027e2:	2800      	cmp	r0, #0
 80027e4:	d101      	bne.n	80027ea <BSP_SPI1_SendRecv+0x1e>
  {
      ret = len;
 80027e6:	0020      	movs	r0, r4
  }
  return ret;
}
 80027e8:	bd16      	pop	{r1, r2, r4, pc}
  int32_t ret = BSP_ERROR_UNKNOWN_FAILURE;
 80027ea:	2006      	movs	r0, #6
 80027ec:	4240      	negs	r0, r0
  return ret;
 80027ee:	e7fb      	b.n	80027e8 <BSP_SPI1_SendRecv+0x1c>
 80027f0:	200004dc 	.word	0x200004dc

080027f4 <BSP_GetTick>:

/**
  * @brief  Return system tick in ms
  * @retval Current HAL time base time stamp
  */
int32_t BSP_GetTick(void) {
 80027f4:	b510      	push	{r4, lr}
  return HAL_GetTick();
 80027f6:	f7fd fe7b 	bl	80004f0 <HAL_GetTick>
}
 80027fa:	bd10      	pop	{r4, pc}

080027fc <MX_SPI1_Init>:
/* SPI1 init function */ 

__weak HAL_StatusTypeDef MX_SPI1_Init(SPI_HandleTypeDef* hspi)
{
  HAL_StatusTypeDef ret = HAL_OK;
  hspi->Instance = SPI1;
 80027fc:	4b0c      	ldr	r3, [pc, #48]	; (8002830 <MX_SPI1_Init+0x34>)
{
 80027fe:	b510      	push	{r4, lr}
  hspi->Instance = SPI1;
 8002800:	6003      	str	r3, [r0, #0]
  hspi->Init.Mode = SPI_MODE_MASTER;
 8002802:	2382      	movs	r3, #130	; 0x82
 8002804:	005b      	lsls	r3, r3, #1
 8002806:	6043      	str	r3, [r0, #4]
  hspi->Init.Direction = SPI_DIRECTION_2LINES;
  hspi->Init.DataSize = SPI_DATASIZE_8BIT;
  hspi->Init.CLKPolarity = SPI_POLARITY_LOW;
  hspi->Init.CLKPhase = SPI_PHASE_1EDGE;
  hspi->Init.NSS = SPI_NSS_SOFT;
 8002808:	2280      	movs	r2, #128	; 0x80
  hspi->Init.Direction = SPI_DIRECTION_2LINES;
 800280a:	2300      	movs	r3, #0
  hspi->Init.NSS = SPI_NSS_SOFT;
 800280c:	0092      	lsls	r2, r2, #2
  hspi->Init.Direction = SPI_DIRECTION_2LINES;
 800280e:	6083      	str	r3, [r0, #8]
  hspi->Init.DataSize = SPI_DATASIZE_8BIT;
 8002810:	60c3      	str	r3, [r0, #12]
  hspi->Init.CLKPolarity = SPI_POLARITY_LOW;
 8002812:	6103      	str	r3, [r0, #16]
  hspi->Init.CLKPhase = SPI_PHASE_1EDGE;
 8002814:	6143      	str	r3, [r0, #20]
  hspi->Init.BaudRatePrescaler = SPI_BAUDRATEPRESCALER_2;
 8002816:	61c3      	str	r3, [r0, #28]
  hspi->Init.FirstBit = SPI_FIRSTBIT_MSB;
 8002818:	6203      	str	r3, [r0, #32]
  hspi->Init.TIMode = SPI_TIMODE_DISABLE;
 800281a:	6243      	str	r3, [r0, #36]	; 0x24
  hspi->Init.CRCCalculation = SPI_CRCCALCULATION_DISABLE;
 800281c:	6283      	str	r3, [r0, #40]	; 0x28
  hspi->Init.CRCPolynomial = 7;
 800281e:	3307      	adds	r3, #7
 8002820:	62c3      	str	r3, [r0, #44]	; 0x2c
  hspi->Init.NSS = SPI_NSS_SOFT;
 8002822:	6182      	str	r2, [r0, #24]
  if (HAL_SPI_Init(hspi) != HAL_OK)
 8002824:	f7fe fcae 	bl	8001184 <HAL_SPI_Init>
 8002828:	1e43      	subs	r3, r0, #1
 800282a:	4198      	sbcs	r0, r3
  {
    ret = HAL_ERROR;
  }

  return ret;
 800282c:	b2c0      	uxtb	r0, r0
}
 800282e:	bd10      	pop	{r4, pc}
 8002830:	40013000 	.word	0x40013000

08002834 <BSP_SPI1_Init>:
int32_t BSP_SPI1_Init(void) {
 8002834:	b5f0      	push	{r4, r5, r6, r7, lr}
  hspi1.Instance  = SPI1;
 8002836:	4d18      	ldr	r5, [pc, #96]	; (8002898 <BSP_SPI1_Init+0x64>)
 8002838:	4b18      	ldr	r3, [pc, #96]	; (800289c <BSP_SPI1_Init+0x68>)
int32_t BSP_SPI1_Init(void) {
 800283a:	b087      	sub	sp, #28
  if (HAL_SPI_GetState(&hspi1) == HAL_SPI_STATE_RESET) 
 800283c:	0028      	movs	r0, r5
  hspi1.Instance  = SPI1;
 800283e:	602b      	str	r3, [r5, #0]
  if (HAL_SPI_GetState(&hspi1) == HAL_SPI_STATE_RESET) 
 8002840:	f7fe fdd6 	bl	80013f0 <HAL_SPI_GetState>
 8002844:	1e04      	subs	r4, r0, #0
 8002846:	d002      	beq.n	800284e <BSP_SPI1_Init+0x1a>
  int32_t ret = BSP_ERROR_NONE;
 8002848:	2000      	movs	r0, #0
}
 800284a:	b007      	add	sp, #28
 800284c:	bdf0      	pop	{r4, r5, r6, r7, pc}
  GPIO_InitTypeDef GPIO_InitStruct;
  /* USER CODE BEGIN SPI1_MspInit 0 */

  /* USER CODE END SPI1_MspInit 0 */
    /* Enable Peripheral clock */
    __HAL_RCC_SPI1_CLK_ENABLE();
 800284e:	2380      	movs	r3, #128	; 0x80
 8002850:	4a13      	ldr	r2, [pc, #76]	; (80028a0 <BSP_SPI1_Init+0x6c>)
 8002852:	015b      	lsls	r3, r3, #5
 8002854:	6b51      	ldr	r1, [r2, #52]	; 0x34
    PA6     ------> SPI1_MISO
    PA7     ------> SPI1_MOSI
    PB3     ------> SPI1_SCK 
    */
    GPIO_InitStruct.Pin = GPIO_PIN_6|GPIO_PIN_7;
    GPIO_InitStruct.Mode = GPIO_MODE_AF_PP;
 8002856:	2702      	movs	r7, #2
    __HAL_RCC_SPI1_CLK_ENABLE();
 8002858:	430b      	orrs	r3, r1
 800285a:	6353      	str	r3, [r2, #52]	; 0x34
    GPIO_InitStruct.Pull = GPIO_NOPULL;
 800285c:	9003      	str	r0, [sp, #12]
    GPIO_InitStruct.Speed = GPIO_SPEED_FREQ_VERY_HIGH;
    GPIO_InitStruct.Alternate = GPIO_AF0_SPI1;
 800285e:	9005      	str	r0, [sp, #20]
    HAL_GPIO_Init(GPIOA, &GPIO_InitStruct);
 8002860:	20a0      	movs	r0, #160	; 0xa0
    GPIO_InitStruct.Pin = GPIO_PIN_6|GPIO_PIN_7;
 8002862:	23c0      	movs	r3, #192	; 0xc0
    GPIO_InitStruct.Speed = GPIO_SPEED_FREQ_VERY_HIGH;
 8002864:	2603      	movs	r6, #3
    HAL_GPIO_Init(GPIOA, &GPIO_InitStruct);
 8002866:	a901      	add	r1, sp, #4
 8002868:	05c0      	lsls	r0, r0, #23
    GPIO_InitStruct.Pin = GPIO_PIN_6|GPIO_PIN_7;
 800286a:	9301      	str	r3, [sp, #4]
    GPIO_InitStruct.Mode = GPIO_MODE_AF_PP;
 800286c:	9702      	str	r7, [sp, #8]
    GPIO_InitStruct.Speed = GPIO_SPEED_FREQ_VERY_HIGH;
 800286e:	9604      	str	r6, [sp, #16]
    HAL_GPIO_Init(GPIOA, &GPIO_InitStruct);
 8002870:	f7fd fea8 	bl	80005c4 <HAL_GPIO_Init>

    GPIO_InitStruct.Pin = GPIO_PIN_3;
 8002874:	2308      	movs	r3, #8
    GPIO_InitStruct.Mode = GPIO_MODE_AF_PP;
    GPIO_InitStruct.Pull = GPIO_NOPULL;
    GPIO_InitStruct.Speed = GPIO_SPEED_FREQ_VERY_HIGH;
    GPIO_InitStruct.Alternate = GPIO_AF0_SPI1;
    HAL_GPIO_Init(GPIOB, &GPIO_InitStruct);
 8002876:	480b      	ldr	r0, [pc, #44]	; (80028a4 <BSP_SPI1_Init+0x70>)
 8002878:	a901      	add	r1, sp, #4
    GPIO_InitStruct.Pin = GPIO_PIN_3;
 800287a:	9301      	str	r3, [sp, #4]
    GPIO_InitStruct.Mode = GPIO_MODE_AF_PP;
 800287c:	9702      	str	r7, [sp, #8]
    GPIO_InitStruct.Pull = GPIO_NOPULL;
 800287e:	9403      	str	r4, [sp, #12]
    GPIO_InitStruct.Speed = GPIO_SPEED_FREQ_VERY_HIGH;
 8002880:	9604      	str	r6, [sp, #16]
    GPIO_InitStruct.Alternate = GPIO_AF0_SPI1;
 8002882:	9405      	str	r4, [sp, #20]
    HAL_GPIO_Init(GPIOB, &GPIO_InitStruct);
 8002884:	f7fd fe9e 	bl	80005c4 <HAL_GPIO_Init>
    if (MX_SPI1_Init(&hspi1) != HAL_OK)
 8002888:	0028      	movs	r0, r5
 800288a:	f7ff ffb7 	bl	80027fc <MX_SPI1_Init>
 800288e:	2800      	cmp	r0, #0
 8002890:	d0da      	beq.n	8002848 <BSP_SPI1_Init+0x14>
      ret = BSP_ERROR_BUS_FAILURE;
 8002892:	2008      	movs	r0, #8
 8002894:	4240      	negs	r0, r0
  return ret;
 8002896:	e7d8      	b.n	800284a <BSP_SPI1_Init+0x16>
 8002898:	200004dc 	.word	0x200004dc
 800289c:	40013000 	.word	0x40013000
 80028a0:	40021000 	.word	0x40021000
 80028a4:	50000400 	.word	0x50000400

080028a8 <BSP_LED_Init>:
int32_t BSP_LED_Init(Led_TypeDef Led)
{
  GPIO_InitTypeDef gpio_init_structure;
  
  /* LED2 is on the same GPIO Port */
  LED2_GPIO_CLK_ENABLE();    
 80028a8:	2301      	movs	r3, #1
{
 80028aa:	b530      	push	{r4, r5, lr}
  /* Configure the GPIO_LED pin */
  gpio_init_structure.Mode  = GPIO_MODE_OUTPUT_PP;
  gpio_init_structure.Pull  = GPIO_PULLUP;
  gpio_init_structure.Speed = GPIO_SPEED_FREQ_HIGH; 
  gpio_init_structure.Pin   = LED_GPIO_PIN [Led];
  HAL_GPIO_Init(LED_GPIO_PORT [Led], &gpio_init_structure); 
 80028ac:	24a0      	movs	r4, #160	; 0xa0
  gpio_init_structure.Pin   = LED_GPIO_PIN [Led];
 80028ae:	2520      	movs	r5, #32
  LED2_GPIO_CLK_ENABLE();    
 80028b0:	4a0d      	ldr	r2, [pc, #52]	; (80028e8 <BSP_LED_Init+0x40>)
{
 80028b2:	b087      	sub	sp, #28
  LED2_GPIO_CLK_ENABLE();    
 80028b4:	6ad1      	ldr	r1, [r2, #44]	; 0x2c
  HAL_GPIO_Init(LED_GPIO_PORT [Led], &gpio_init_structure); 
 80028b6:	05e4      	lsls	r4, r4, #23
  LED2_GPIO_CLK_ENABLE();    
 80028b8:	4319      	orrs	r1, r3
 80028ba:	62d1      	str	r1, [r2, #44]	; 0x2c
 80028bc:	6ad2      	ldr	r2, [r2, #44]	; 0x2c
  HAL_GPIO_Init(LED_GPIO_PORT [Led], &gpio_init_structure); 
 80028be:	a901      	add	r1, sp, #4
  LED2_GPIO_CLK_ENABLE();    
 80028c0:	401a      	ands	r2, r3
 80028c2:	9200      	str	r2, [sp, #0]
  gpio_init_structure.Mode  = GPIO_MODE_OUTPUT_PP;
 80028c4:	9302      	str	r3, [sp, #8]
  gpio_init_structure.Pull  = GPIO_PULLUP;
 80028c6:	9303      	str	r3, [sp, #12]
  HAL_GPIO_Init(LED_GPIO_PORT [Led], &gpio_init_structure); 
 80028c8:	0020      	movs	r0, r4
  gpio_init_structure.Speed = GPIO_SPEED_FREQ_HIGH; 
 80028ca:	18db      	adds	r3, r3, r3
  LED2_GPIO_CLK_ENABLE();    
 80028cc:	9a00      	ldr	r2, [sp, #0]
  gpio_init_structure.Speed = GPIO_SPEED_FREQ_HIGH; 
 80028ce:	9304      	str	r3, [sp, #16]
  gpio_init_structure.Pin   = LED_GPIO_PIN [Led];
 80028d0:	9501      	str	r5, [sp, #4]
  HAL_GPIO_Init(LED_GPIO_PORT [Led], &gpio_init_structure); 
 80028d2:	f7fd fe77 	bl	80005c4 <HAL_GPIO_Init>
  
  /* By default, turn off LED */
  HAL_GPIO_WritePin(LED_GPIO_PORT [Led], LED_GPIO_PIN [Led], GPIO_PIN_RESET);
 80028d6:	0020      	movs	r0, r4
 80028d8:	2200      	movs	r2, #0
 80028da:	0029      	movs	r1, r5
 80028dc:	f7fd ffaa 	bl	8000834 <HAL_GPIO_WritePin>
  
  return BSP_ERROR_NONE;
}
 80028e0:	2000      	movs	r0, #0
 80028e2:	b007      	add	sp, #28
 80028e4:	bd30      	pop	{r4, r5, pc}
 80028e6:	46c0      	nop			; (mov r8, r8)
 80028e8:	40021000 	.word	0x40021000

080028ec <BSP_LED_Toggle>:
 *              @arg  LED4
 * @retval HAL status
 */
int32_t BSP_LED_Toggle(Led_TypeDef Led)
{
  HAL_GPIO_TogglePin(LED_GPIO_PORT[Led], (uint16_t)LED_GPIO_PIN[Led]);
 80028ec:	20a0      	movs	r0, #160	; 0xa0
{
 80028ee:	b510      	push	{r4, lr}
  HAL_GPIO_TogglePin(LED_GPIO_PORT[Led], (uint16_t)LED_GPIO_PIN[Led]);
 80028f0:	05c0      	lsls	r0, r0, #23
 80028f2:	2120      	movs	r1, #32
 80028f4:	f7fd ffa4 	bl	8000840 <HAL_GPIO_TogglePin>
  
  return BSP_ERROR_NONE;
}
 80028f8:	2000      	movs	r0, #0
 80028fa:	bd10      	pop	{r4, pc}

080028fc <HAL_EXTI_RegisterCallback>:
  */
HAL_StatusTypeDef HAL_EXTI_RegisterCallback(EXTI_HandleTypeDef *hexti, EXTI_CallbackIDTypeDef CallbackID, void (*pPendingCbfn)(void))
{
  HAL_StatusTypeDef status = HAL_OK;

  switch (CallbackID)
 80028fc:	2900      	cmp	r1, #0
 80028fe:	d102      	bne.n	8002906 <HAL_EXTI_RegisterCallback+0xa>
    case  HAL_EXTI_FALLING_CB_ID:
      hexti->FallingCallback = pPendingCbfn;
      break; 
#else
    case  HAL_EXTI_COMMON_CB_ID:
      hexti->Callback = pPendingCbfn;
 8002900:	6042      	str	r2, [r0, #4]
  HAL_StatusTypeDef status = HAL_OK;
 8002902:	0008      	movs	r0, r1
      status = HAL_ERROR;
      break;
  }

  return status;
}
 8002904:	4770      	bx	lr
      status = HAL_ERROR;
 8002906:	2001      	movs	r0, #1
 8002908:	e7fc      	b.n	8002904 <HAL_EXTI_RegisterCallback+0x8>

0800290a <HAL_EXTI_GetHandle>:
  assert_param(IS_EXTI_LINE(ExtiLine));

  /* Check null pointer */
  if(hexti == NULL)
  {
    return HAL_ERROR;
 800290a:	2301      	movs	r3, #1
  if(hexti == NULL)
 800290c:	2800      	cmp	r0, #0
 800290e:	d001      	beq.n	8002914 <HAL_EXTI_GetHandle+0xa>
  }
  else
  {
    /* Store line number as handle private field */
    hexti->Line = ExtiLine;
    return HAL_OK;
 8002910:	2300      	movs	r3, #0
    hexti->Line = ExtiLine;
 8002912:	6001      	str	r1, [r0, #0]
  }
}
 8002914:	0018      	movs	r0, r3
 8002916:	4770      	bx	lr

08002918 <HAL_EXTI_IRQHandler>:
#else
  EXTI_CurrentCPU = EXTI_D1; /* EXTI for CM7 CPU */
#endif
#endif /* EXTI_D1 */

  linepos = (hexti->Line & EXTI_PIN_MASK);
 8002918:	221f      	movs	r2, #31
 800291a:	6803      	ldr	r3, [r0, #0]
{
 800291c:	b510      	push	{r4, lr}
  linepos = (hexti->Line & EXTI_PIN_MASK);
 800291e:	401a      	ands	r2, r3
  maskline = (1 << linepos);
 8002920:	2301      	movs	r3, #1
 8002922:	4093      	lsls	r3, r2
      hexti->FallingCallback();
    }  
  }
#else  
  /* compute line mask */
  if((EXTI->PR & maskline) != 0x00u)
 8002924:	4a04      	ldr	r2, [pc, #16]	; (8002938 <HAL_EXTI_IRQHandler+0x20>)
 8002926:	6951      	ldr	r1, [r2, #20]
 8002928:	4219      	tst	r1, r3
 800292a:	d004      	beq.n	8002936 <HAL_EXTI_IRQHandler+0x1e>
  {
    /* Clear pending bit */
    EXTI->PR = maskline;
 800292c:	6153      	str	r3, [r2, #20]
    
    /* Call rising/Falling callback */
    if(hexti->Callback != NULL)
 800292e:	6843      	ldr	r3, [r0, #4]
 8002930:	2b00      	cmp	r3, #0
 8002932:	d000      	beq.n	8002936 <HAL_EXTI_IRQHandler+0x1e>
    {
      hexti->Callback();
 8002934:	4798      	blx	r3
    }  
  }
#endif
}
 8002936:	bd10      	pop	{r4, pc}
 8002938:	40010400 	.word	0x40010400

0800293c <HAL_MspInit>:
{
  /* USER CODE BEGIN MspInit 0 */

  /* USER CODE END MspInit 0 */

  __HAL_RCC_SYSCFG_CLK_ENABLE();
 800293c:	2201      	movs	r2, #1
 800293e:	4b05      	ldr	r3, [pc, #20]	; (8002954 <HAL_MspInit+0x18>)
 8002940:	6b59      	ldr	r1, [r3, #52]	; 0x34
 8002942:	430a      	orrs	r2, r1
 8002944:	635a      	str	r2, [r3, #52]	; 0x34
  __HAL_RCC_PWR_CLK_ENABLE();
 8002946:	2280      	movs	r2, #128	; 0x80
 8002948:	6b99      	ldr	r1, [r3, #56]	; 0x38
 800294a:	0552      	lsls	r2, r2, #21
 800294c:	430a      	orrs	r2, r1
 800294e:	639a      	str	r2, [r3, #56]	; 0x38
  /* System interrupt init*/

  /* USER CODE BEGIN MspInit 1 */

  /* USER CODE END MspInit 1 */
}
 8002950:	4770      	bx	lr
 8002952:	46c0      	nop			; (mov r8, r8)
 8002954:	40021000 	.word	0x40021000

08002958 <NMI_Handler>:
 8002958:	4770      	bx	lr

0800295a <HardFault_Handler>:

/**
  * @brief This function handles Hard fault interrupt.
  */
void HardFault_Handler(void)
{
 800295a:	e7fe      	b.n	800295a <HardFault_Handler>

0800295c <SVC_Handler>:
 800295c:	4770      	bx	lr

0800295e <PendSV_Handler>:

  /* USER CODE END PendSV_IRQn 0 */
  /* USER CODE BEGIN PendSV_IRQn 1 */

  /* USER CODE END PendSV_IRQn 1 */
}
 800295e:	4770      	bx	lr

08002960 <SysTick_Handler>:

/**
  * @brief This function handles System tick timer.
  */
void SysTick_Handler(void)
{
 8002960:	b510      	push	{r4, lr}
  /* USER CODE BEGIN SysTick_IRQn 0 */

  /* USER CODE END SysTick_IRQn 0 */
  HAL_IncTick();
 8002962:	f7fd fdbd 	bl	80004e0 <HAL_IncTick>
  /* USER CODE BEGIN SysTick_IRQn 1 */

  /* USER CODE END SysTick_IRQn 1 */
}
 8002966:	bd10      	pop	{r4, pc}

08002968 <EXTI0_1_IRQHandler>:

/**
  * @brief This function handles EXTI line 0 and line 1 interrupts.
  */
void EXTI0_1_IRQHandler(void)
{
 8002968:	b510      	push	{r4, lr}
  /* USER CODE BEGIN EXTI0_1_IRQn 0 */

  /* USER CODE END EXTI0_1_IRQn 0 */
  HAL_EXTI_IRQHandler(&hexti0);
 800296a:	4802      	ldr	r0, [pc, #8]	; (8002974 <EXTI0_1_IRQHandler+0xc>)
 800296c:	f7ff ffd4 	bl	8002918 <HAL_EXTI_IRQHandler>
  /* USER CODE BEGIN EXTI0_1_IRQn 1 */

  /* USER CODE END EXTI0_1_IRQn 1 */
}
 8002970:	bd10      	pop	{r4, pc}
 8002972:	46c0      	nop			; (mov r8, r8)
 8002974:	20000488 	.word	0x20000488

08002978 <SystemInit>:
  * @retval None
  */
void SystemInit (void)
{
/*!< Set MSION bit */
  RCC->CR |= (uint32_t)0x00000100U;
 8002978:	2280      	movs	r2, #128	; 0x80
 800297a:	4b10      	ldr	r3, [pc, #64]	; (80029bc <SystemInit+0x44>)
 800297c:	0052      	lsls	r2, r2, #1
 800297e:	6819      	ldr	r1, [r3, #0]
 8002980:	430a      	orrs	r2, r1
 8002982:	601a      	str	r2, [r3, #0]

  /*!< Reset SW[1:0], HPRE[3:0], PPRE1[2:0], PPRE2[2:0], MCOSEL[2:0] and MCOPRE[2:0] bits */
  RCC->CFGR &= (uint32_t) 0x88FF400CU;
 8002984:	68da      	ldr	r2, [r3, #12]
 8002986:	490e      	ldr	r1, [pc, #56]	; (80029c0 <SystemInit+0x48>)
 8002988:	400a      	ands	r2, r1
 800298a:	60da      	str	r2, [r3, #12]

  /*!< Reset HSION, HSIDIVEN, HSEON, CSSON and PLLON bits */
  RCC->CR &= (uint32_t)0xFEF6FFF6U;
 800298c:	681a      	ldr	r2, [r3, #0]
 800298e:	490d      	ldr	r1, [pc, #52]	; (80029c4 <SystemInit+0x4c>)
 8002990:	400a      	ands	r2, r1

  /*!< Reset HSI48ON  bit */
  RCC->CRRCR &= (uint32_t)0xFFFFFFFEU;
 8002992:	2101      	movs	r1, #1
  RCC->CR &= (uint32_t)0xFEF6FFF6U;
 8002994:	601a      	str	r2, [r3, #0]
  RCC->CRRCR &= (uint32_t)0xFFFFFFFEU;
 8002996:	689a      	ldr	r2, [r3, #8]
 8002998:	438a      	bics	r2, r1
 800299a:	609a      	str	r2, [r3, #8]

  /*!< Reset HSEBYP bit */
  RCC->CR &= (uint32_t)0xFFFBFFFFU;
 800299c:	681a      	ldr	r2, [r3, #0]
 800299e:	490a      	ldr	r1, [pc, #40]	; (80029c8 <SystemInit+0x50>)
 80029a0:	400a      	ands	r2, r1
 80029a2:	601a      	str	r2, [r3, #0]

  /*!< Reset PLLSRC, PLLMUL[3:0] and PLLDIV[1:0] bits */
  RCC->CFGR &= (uint32_t)0xFF02FFFFU;
 80029a4:	68da      	ldr	r2, [r3, #12]
 80029a6:	4909      	ldr	r1, [pc, #36]	; (80029cc <SystemInit+0x54>)
 80029a8:	400a      	ands	r2, r1
 80029aa:	60da      	str	r2, [r3, #12]

  /*!< Disable all interrupts */
  RCC->CIER = 0x00000000U;
 80029ac:	2200      	movs	r2, #0
 80029ae:	611a      	str	r2, [r3, #16]

  /* Configure the Vector Table location add offset address ------------------*/
#ifdef VECT_TAB_SRAM
  SCB->VTOR = SRAM_BASE | VECT_TAB_OFFSET; /* Vector Table Relocation in Internal SRAM */
#else
  SCB->VTOR = FLASH_BASE | VECT_TAB_OFFSET; /* Vector Table Relocation in Internal FLASH */
 80029b0:	2280      	movs	r2, #128	; 0x80
 80029b2:	4b07      	ldr	r3, [pc, #28]	; (80029d0 <SystemInit+0x58>)
 80029b4:	0512      	lsls	r2, r2, #20
 80029b6:	609a      	str	r2, [r3, #8]
#endif
}
 80029b8:	4770      	bx	lr
 80029ba:	46c0      	nop			; (mov r8, r8)
 80029bc:	40021000 	.word	0x40021000
 80029c0:	88ff400c 	.word	0x88ff400c
 80029c4:	fef6fff6 	.word	0xfef6fff6
 80029c8:	fffbffff 	.word	0xfffbffff
 80029cc:	ff02ffff 	.word	0xff02ffff
 80029d0:	e000ed00 	.word	0xe000ed00

080029d4 <Reset_Handler>:

    .section  .text.Reset_Handler
  .weak  Reset_Handler
  .type  Reset_Handler, %function
Reset_Handler:  
  ldr   r0, =_estack
 80029d4:	480d      	ldr	r0, [pc, #52]	; (8002a0c <LoopForever+0x2>)
  mov   sp, r0          /* set stack pointer */
 80029d6:	4685      	mov	sp, r0

/* Copy the data segment initializers from flash to SRAM */
  movs  r1, #0
 80029d8:	2100      	movs	r1, #0
  b  LoopCopyDataInit
 80029da:	e003      	b.n	80029e4 <LoopCopyDataInit>

080029dc <CopyDataInit>:

CopyDataInit:
  ldr  r3, =_sidata
 80029dc:	4b0c      	ldr	r3, [pc, #48]	; (8002a10 <LoopForever+0x6>)
  ldr  r3, [r3, r1]
 80029de:	585b      	ldr	r3, [r3, r1]
  str  r3, [r0, r1]
 80029e0:	5043      	str	r3, [r0, r1]
  adds  r1, r1, #4
 80029e2:	3104      	adds	r1, #4

080029e4 <LoopCopyDataInit>:

LoopCopyDataInit:
  ldr  r0, =_sdata
 80029e4:	480b      	ldr	r0, [pc, #44]	; (8002a14 <LoopForever+0xa>)
  ldr  r3, =_edata
 80029e6:	4b0c      	ldr	r3, [pc, #48]	; (8002a18 <LoopForever+0xe>)
  adds  r2, r0, r1
 80029e8:	1842      	adds	r2, r0, r1
  cmp  r2, r3
 80029ea:	429a      	cmp	r2, r3
  bcc  CopyDataInit
 80029ec:	d3f6      	bcc.n	80029dc <CopyDataInit>
  ldr  r2, =_sbss
 80029ee:	4a0b      	ldr	r2, [pc, #44]	; (8002a1c <LoopForever+0x12>)
  b  LoopFillZerobss
 80029f0:	e002      	b.n	80029f8 <LoopFillZerobss>

080029f2 <FillZerobss>:
/* Zero fill the bss segment. */
FillZerobss:
  movs  r3, #0
 80029f2:	2300      	movs	r3, #0
  str  r3, [r2]
 80029f4:	6013      	str	r3, [r2, #0]
  adds r2, r2, #4
 80029f6:	3204      	adds	r2, #4

080029f8 <LoopFillZerobss>:


LoopFillZerobss:
  ldr  r3, = _ebss
 80029f8:	4b09      	ldr	r3, [pc, #36]	; (8002a20 <LoopForever+0x16>)
  cmp  r2, r3
 80029fa:	429a      	cmp	r2, r3
  bcc  FillZerobss
 80029fc:	d3f9      	bcc.n	80029f2 <FillZerobss>

/* Call the clock system intitialization function.*/
  bl  SystemInit
 80029fe:	f7ff ffbb 	bl	8002978 <SystemInit>
/* Call static constructors */
    bl __libc_init_array
 8002a02:	f000 f811 	bl	8002a28 <__libc_init_array>
/* Call the application's entry point.*/
  bl  main
 8002a06:	f7ff fe7b 	bl	8002700 <main>

08002a0a <LoopForever>:

LoopForever:
    b LoopForever
 8002a0a:	e7fe      	b.n	8002a0a <LoopForever>
  ldr   r0, =_estack
 8002a0c:	20002000 	.word	0x20002000
  ldr  r3, =_sidata
 8002a10:	08002cd0 	.word	0x08002cd0
  ldr  r0, =_sdata
 8002a14:	20000000 	.word	0x20000000
  ldr  r3, =_edata
 8002a18:	2000006c 	.word	0x2000006c
  ldr  r2, =_sbss
 8002a1c:	2000006c 	.word	0x2000006c
  ldr  r3, = _ebss
 8002a20:	20000538 	.word	0x20000538

08002a24 <ADC1_COMP_IRQHandler>:
 * @retval : None
*/
    .section  .text.Default_Handler,"ax",%progbits
Default_Handler:
Infinite_Loop:
  b  Infinite_Loop
 8002a24:	e7fe      	b.n	8002a24 <ADC1_COMP_IRQHandler>
	...

08002a28 <__libc_init_array>:
 8002a28:	b570      	push	{r4, r5, r6, lr}
 8002a2a:	2600      	movs	r6, #0
 8002a2c:	4d0c      	ldr	r5, [pc, #48]	; (8002a60 <__libc_init_array+0x38>)
 8002a2e:	4c0d      	ldr	r4, [pc, #52]	; (8002a64 <__libc_init_array+0x3c>)
 8002a30:	1b64      	subs	r4, r4, r5
 8002a32:	10a4      	asrs	r4, r4, #2
 8002a34:	42a6      	cmp	r6, r4
 8002a36:	d109      	bne.n	8002a4c <__libc_init_array+0x24>
 8002a38:	2600      	movs	r6, #0
 8002a3a:	f000 f921 	bl	8002c80 <_init>
 8002a3e:	4d0a      	ldr	r5, [pc, #40]	; (8002a68 <__libc_init_array+0x40>)
 8002a40:	4c0a      	ldr	r4, [pc, #40]	; (8002a6c <__libc_init_array+0x44>)
 8002a42:	1b64      	subs	r4, r4, r5
 8002a44:	10a4      	asrs	r4, r4, #2
 8002a46:	42a6      	cmp	r6, r4
 8002a48:	d105      	bne.n	8002a56 <__libc_init_array+0x2e>
 8002a4a:	bd70      	pop	{r4, r5, r6, pc}
 8002a4c:	00b3      	lsls	r3, r6, #2
 8002a4e:	58eb      	ldr	r3, [r5, r3]
 8002a50:	4798      	blx	r3
 8002a52:	3601      	adds	r6, #1
 8002a54:	e7ee      	b.n	8002a34 <__libc_init_array+0xc>
 8002a56:	00b3      	lsls	r3, r6, #2
 8002a58:	58eb      	ldr	r3, [r5, r3]
 8002a5a:	4798      	blx	r3
 8002a5c:	3601      	adds	r6, #1
 8002a5e:	e7f2      	b.n	8002a46 <__libc_init_array+0x1e>
 8002a60:	08002cc8 	.word	0x08002cc8
 8002a64:	08002cc8 	.word	0x08002cc8
 8002a68:	08002cc8 	.word	0x08002cc8
 8002a6c:	08002ccc 	.word	0x08002ccc

08002a70 <memcpy>:
 8002a70:	2300      	movs	r3, #0
 8002a72:	b510      	push	{r4, lr}
 8002a74:	429a      	cmp	r2, r3
 8002a76:	d100      	bne.n	8002a7a <memcpy+0xa>
 8002a78:	bd10      	pop	{r4, pc}
 8002a7a:	5ccc      	ldrb	r4, [r1, r3]
 8002a7c:	54c4      	strb	r4, [r0, r3]
 8002a7e:	3301      	adds	r3, #1
 8002a80:	e7f8      	b.n	8002a74 <memcpy+0x4>

08002a82 <memset>:
 8002a82:	0003      	movs	r3, r0
 8002a84:	1882      	adds	r2, r0, r2
 8002a86:	4293      	cmp	r3, r2
 8002a88:	d100      	bne.n	8002a8c <memset+0xa>
 8002a8a:	4770      	bx	lr
 8002a8c:	7019      	strb	r1, [r3, #0]
 8002a8e:	3301      	adds	r3, #1
 8002a90:	e7f9      	b.n	8002a86 <memset+0x4>
	...

08002a94 <srand>:
 8002a94:	4b10      	ldr	r3, [pc, #64]	; (8002ad8 <srand+0x44>)
 8002a96:	b570      	push	{r4, r5, r6, lr}
 8002a98:	681c      	ldr	r4, [r3, #0]
 8002a9a:	0005      	movs	r5, r0
 8002a9c:	6ba3      	ldr	r3, [r4, #56]	; 0x38
 8002a9e:	2b00      	cmp	r3, #0
 8002aa0:	d115      	bne.n	8002ace <srand+0x3a>
 8002aa2:	2018      	movs	r0, #24
 8002aa4:	f000 f860 	bl	8002b68 <malloc>
 8002aa8:	4b0c      	ldr	r3, [pc, #48]	; (8002adc <srand+0x48>)
 8002aaa:	63a0      	str	r0, [r4, #56]	; 0x38
 8002aac:	8003      	strh	r3, [r0, #0]
 8002aae:	4b0c      	ldr	r3, [pc, #48]	; (8002ae0 <srand+0x4c>)
 8002ab0:	2201      	movs	r2, #1
 8002ab2:	8043      	strh	r3, [r0, #2]
 8002ab4:	4b0b      	ldr	r3, [pc, #44]	; (8002ae4 <srand+0x50>)
 8002ab6:	8083      	strh	r3, [r0, #4]
 8002ab8:	4b0b      	ldr	r3, [pc, #44]	; (8002ae8 <srand+0x54>)
 8002aba:	80c3      	strh	r3, [r0, #6]
 8002abc:	4b0b      	ldr	r3, [pc, #44]	; (8002aec <srand+0x58>)
 8002abe:	8103      	strh	r3, [r0, #8]
 8002ac0:	2305      	movs	r3, #5
 8002ac2:	8143      	strh	r3, [r0, #10]
 8002ac4:	3306      	adds	r3, #6
 8002ac6:	8183      	strh	r3, [r0, #12]
 8002ac8:	2300      	movs	r3, #0
 8002aca:	6102      	str	r2, [r0, #16]
 8002acc:	6143      	str	r3, [r0, #20]
 8002ace:	2200      	movs	r2, #0
 8002ad0:	6ba3      	ldr	r3, [r4, #56]	; 0x38
 8002ad2:	611d      	str	r5, [r3, #16]
 8002ad4:	615a      	str	r2, [r3, #20]
 8002ad6:	bd70      	pop	{r4, r5, r6, pc}
 8002ad8:	20000008 	.word	0x20000008
 8002adc:	0000330e 	.word	0x0000330e
 8002ae0:	ffffabcd 	.word	0xffffabcd
 8002ae4:	00001234 	.word	0x00001234
 8002ae8:	ffffe66d 	.word	0xffffe66d
 8002aec:	ffffdeec 	.word	0xffffdeec

08002af0 <rand>:
 8002af0:	4b15      	ldr	r3, [pc, #84]	; (8002b48 <rand+0x58>)
 8002af2:	b510      	push	{r4, lr}
 8002af4:	681c      	ldr	r4, [r3, #0]
 8002af6:	6ba3      	ldr	r3, [r4, #56]	; 0x38
 8002af8:	2b00      	cmp	r3, #0
 8002afa:	d115      	bne.n	8002b28 <rand+0x38>
 8002afc:	2018      	movs	r0, #24
 8002afe:	f000 f833 	bl	8002b68 <malloc>
 8002b02:	4b12      	ldr	r3, [pc, #72]	; (8002b4c <rand+0x5c>)
 8002b04:	63a0      	str	r0, [r4, #56]	; 0x38
 8002b06:	8003      	strh	r3, [r0, #0]
 8002b08:	4b11      	ldr	r3, [pc, #68]	; (8002b50 <rand+0x60>)
 8002b0a:	2201      	movs	r2, #1
 8002b0c:	8043      	strh	r3, [r0, #2]
 8002b0e:	4b11      	ldr	r3, [pc, #68]	; (8002b54 <rand+0x64>)
 8002b10:	8083      	strh	r3, [r0, #4]
 8002b12:	4b11      	ldr	r3, [pc, #68]	; (8002b58 <rand+0x68>)
 8002b14:	80c3      	strh	r3, [r0, #6]
 8002b16:	4b11      	ldr	r3, [pc, #68]	; (8002b5c <rand+0x6c>)
 8002b18:	8103      	strh	r3, [r0, #8]
 8002b1a:	2305      	movs	r3, #5
 8002b1c:	8143      	strh	r3, [r0, #10]
 8002b1e:	3306      	adds	r3, #6
 8002b20:	8183      	strh	r3, [r0, #12]
 8002b22:	2300      	movs	r3, #0
 8002b24:	6102      	str	r2, [r0, #16]
 8002b26:	6143      	str	r3, [r0, #20]
 8002b28:	6ba4      	ldr	r4, [r4, #56]	; 0x38
 8002b2a:	4a0d      	ldr	r2, [pc, #52]	; (8002b60 <rand+0x70>)
 8002b2c:	6920      	ldr	r0, [r4, #16]
 8002b2e:	6961      	ldr	r1, [r4, #20]
 8002b30:	4b0c      	ldr	r3, [pc, #48]	; (8002b64 <rand+0x74>)
 8002b32:	f7fd fb95 	bl	8000260 <__aeabi_lmul>
 8002b36:	2201      	movs	r2, #1
 8002b38:	2300      	movs	r3, #0
 8002b3a:	1880      	adds	r0, r0, r2
 8002b3c:	4159      	adcs	r1, r3
 8002b3e:	6120      	str	r0, [r4, #16]
 8002b40:	6161      	str	r1, [r4, #20]
 8002b42:	0048      	lsls	r0, r1, #1
 8002b44:	0840      	lsrs	r0, r0, #1
 8002b46:	bd10      	pop	{r4, pc}
 8002b48:	20000008 	.word	0x20000008
 8002b4c:	0000330e 	.word	0x0000330e
 8002b50:	ffffabcd 	.word	0xffffabcd
 8002b54:	00001234 	.word	0x00001234
 8002b58:	ffffe66d 	.word	0xffffe66d
 8002b5c:	ffffdeec 	.word	0xffffdeec
 8002b60:	4c957f2d 	.word	0x4c957f2d
 8002b64:	5851f42d 	.word	0x5851f42d

08002b68 <malloc>:
 8002b68:	b510      	push	{r4, lr}
 8002b6a:	4b03      	ldr	r3, [pc, #12]	; (8002b78 <malloc+0x10>)
 8002b6c:	0001      	movs	r1, r0
 8002b6e:	6818      	ldr	r0, [r3, #0]
 8002b70:	f000 f804 	bl	8002b7c <_malloc_r>
 8002b74:	bd10      	pop	{r4, pc}
 8002b76:	46c0      	nop			; (mov r8, r8)
 8002b78:	20000008 	.word	0x20000008

08002b7c <_malloc_r>:
 8002b7c:	2303      	movs	r3, #3
 8002b7e:	b570      	push	{r4, r5, r6, lr}
 8002b80:	1ccd      	adds	r5, r1, #3
 8002b82:	439d      	bics	r5, r3
 8002b84:	3508      	adds	r5, #8
 8002b86:	0006      	movs	r6, r0
 8002b88:	2d0c      	cmp	r5, #12
 8002b8a:	d21e      	bcs.n	8002bca <_malloc_r+0x4e>
 8002b8c:	250c      	movs	r5, #12
 8002b8e:	42a9      	cmp	r1, r5
 8002b90:	d81d      	bhi.n	8002bce <_malloc_r+0x52>
 8002b92:	0030      	movs	r0, r6
 8002b94:	f000 f862 	bl	8002c5c <__malloc_lock>
 8002b98:	4a25      	ldr	r2, [pc, #148]	; (8002c30 <_malloc_r+0xb4>)
 8002b9a:	6814      	ldr	r4, [r2, #0]
 8002b9c:	0021      	movs	r1, r4
 8002b9e:	2900      	cmp	r1, #0
 8002ba0:	d119      	bne.n	8002bd6 <_malloc_r+0x5a>
 8002ba2:	4c24      	ldr	r4, [pc, #144]	; (8002c34 <_malloc_r+0xb8>)
 8002ba4:	6823      	ldr	r3, [r4, #0]
 8002ba6:	2b00      	cmp	r3, #0
 8002ba8:	d103      	bne.n	8002bb2 <_malloc_r+0x36>
 8002baa:	0030      	movs	r0, r6
 8002bac:	f000 f844 	bl	8002c38 <_sbrk_r>
 8002bb0:	6020      	str	r0, [r4, #0]
 8002bb2:	0029      	movs	r1, r5
 8002bb4:	0030      	movs	r0, r6
 8002bb6:	f000 f83f 	bl	8002c38 <_sbrk_r>
 8002bba:	1c43      	adds	r3, r0, #1
 8002bbc:	d12c      	bne.n	8002c18 <_malloc_r+0x9c>
 8002bbe:	230c      	movs	r3, #12
 8002bc0:	0030      	movs	r0, r6
 8002bc2:	6033      	str	r3, [r6, #0]
 8002bc4:	f000 f84b 	bl	8002c5e <__malloc_unlock>
 8002bc8:	e003      	b.n	8002bd2 <_malloc_r+0x56>
 8002bca:	2d00      	cmp	r5, #0
 8002bcc:	dadf      	bge.n	8002b8e <_malloc_r+0x12>
 8002bce:	230c      	movs	r3, #12
 8002bd0:	6033      	str	r3, [r6, #0]
 8002bd2:	2000      	movs	r0, #0
 8002bd4:	bd70      	pop	{r4, r5, r6, pc}
 8002bd6:	680b      	ldr	r3, [r1, #0]
 8002bd8:	1b5b      	subs	r3, r3, r5
 8002bda:	d41a      	bmi.n	8002c12 <_malloc_r+0x96>
 8002bdc:	2b0b      	cmp	r3, #11
 8002bde:	d903      	bls.n	8002be8 <_malloc_r+0x6c>
 8002be0:	600b      	str	r3, [r1, #0]
 8002be2:	18cc      	adds	r4, r1, r3
 8002be4:	6025      	str	r5, [r4, #0]
 8002be6:	e003      	b.n	8002bf0 <_malloc_r+0x74>
 8002be8:	428c      	cmp	r4, r1
 8002bea:	d10e      	bne.n	8002c0a <_malloc_r+0x8e>
 8002bec:	6863      	ldr	r3, [r4, #4]
 8002bee:	6013      	str	r3, [r2, #0]
 8002bf0:	0030      	movs	r0, r6
 8002bf2:	f000 f834 	bl	8002c5e <__malloc_unlock>
 8002bf6:	0020      	movs	r0, r4
 8002bf8:	2207      	movs	r2, #7
 8002bfa:	300b      	adds	r0, #11
 8002bfc:	1d23      	adds	r3, r4, #4
 8002bfe:	4390      	bics	r0, r2
 8002c00:	1ac3      	subs	r3, r0, r3
 8002c02:	d0e7      	beq.n	8002bd4 <_malloc_r+0x58>
 8002c04:	425a      	negs	r2, r3
 8002c06:	50e2      	str	r2, [r4, r3]
 8002c08:	e7e4      	b.n	8002bd4 <_malloc_r+0x58>
 8002c0a:	684b      	ldr	r3, [r1, #4]
 8002c0c:	6063      	str	r3, [r4, #4]
 8002c0e:	000c      	movs	r4, r1
 8002c10:	e7ee      	b.n	8002bf0 <_malloc_r+0x74>
 8002c12:	000c      	movs	r4, r1
 8002c14:	6849      	ldr	r1, [r1, #4]
 8002c16:	e7c2      	b.n	8002b9e <_malloc_r+0x22>
 8002c18:	2303      	movs	r3, #3
 8002c1a:	1cc4      	adds	r4, r0, #3
 8002c1c:	439c      	bics	r4, r3
 8002c1e:	42a0      	cmp	r0, r4
 8002c20:	d0e0      	beq.n	8002be4 <_malloc_r+0x68>
 8002c22:	1a21      	subs	r1, r4, r0
 8002c24:	0030      	movs	r0, r6
 8002c26:	f000 f807 	bl	8002c38 <_sbrk_r>
 8002c2a:	1c43      	adds	r3, r0, #1
 8002c2c:	d1da      	bne.n	8002be4 <_malloc_r+0x68>
 8002c2e:	e7c6      	b.n	8002bbe <_malloc_r+0x42>
 8002c30:	20000468 	.word	0x20000468
 8002c34:	2000046c 	.word	0x2000046c

08002c38 <_sbrk_r>:
 8002c38:	2300      	movs	r3, #0
 8002c3a:	b570      	push	{r4, r5, r6, lr}
 8002c3c:	4c06      	ldr	r4, [pc, #24]	; (8002c58 <_sbrk_r+0x20>)
 8002c3e:	0005      	movs	r5, r0
 8002c40:	0008      	movs	r0, r1
 8002c42:	6023      	str	r3, [r4, #0]
 8002c44:	f000 f80c 	bl	8002c60 <_sbrk>
 8002c48:	1c43      	adds	r3, r0, #1
 8002c4a:	d103      	bne.n	8002c54 <_sbrk_r+0x1c>
 8002c4c:	6823      	ldr	r3, [r4, #0]
 8002c4e:	2b00      	cmp	r3, #0
 8002c50:	d000      	beq.n	8002c54 <_sbrk_r+0x1c>
 8002c52:	602b      	str	r3, [r5, #0]
 8002c54:	bd70      	pop	{r4, r5, r6, pc}
 8002c56:	46c0      	nop			; (mov r8, r8)
 8002c58:	20000534 	.word	0x20000534

08002c5c <__malloc_lock>:
 8002c5c:	4770      	bx	lr

08002c5e <__malloc_unlock>:
 8002c5e:	4770      	bx	lr

08002c60 <_sbrk>:
 8002c60:	4b05      	ldr	r3, [pc, #20]	; (8002c78 <_sbrk+0x18>)
 8002c62:	0002      	movs	r2, r0
 8002c64:	6819      	ldr	r1, [r3, #0]
 8002c66:	2900      	cmp	r1, #0
 8002c68:	d101      	bne.n	8002c6e <_sbrk+0xe>
 8002c6a:	4904      	ldr	r1, [pc, #16]	; (8002c7c <_sbrk+0x1c>)
 8002c6c:	6019      	str	r1, [r3, #0]
 8002c6e:	6818      	ldr	r0, [r3, #0]
 8002c70:	1882      	adds	r2, r0, r2
 8002c72:	601a      	str	r2, [r3, #0]
 8002c74:	4770      	bx	lr
 8002c76:	46c0      	nop			; (mov r8, r8)
 8002c78:	20000470 	.word	0x20000470
 8002c7c:	20000538 	.word	0x20000538

08002c80 <_init>:
 8002c80:	b5f8      	push	{r3, r4, r5, r6, r7, lr}
 8002c82:	46c0      	nop			; (mov r8, r8)
 8002c84:	bcf8      	pop	{r3, r4, r5, r6, r7}
 8002c86:	bc08      	pop	{r3}
 8002c88:	469e      	mov	lr, r3
 8002c8a:	4770      	bx	lr

08002c8c <_fini>:
 8002c8c:	b5f8      	push	{r3, r4, r5, r6, r7, lr}
 8002c8e:	46c0      	nop			; (mov r8, r8)
 8002c90:	bcf8      	pop	{r3, r4, r5, r6, r7}
 8002c92:	bc08      	pop	{r3}
 8002c94:	469e      	mov	lr, r3
 8002c96:	4770      	bx	lr
